
DI-601_MPU-6050.elf:     file format elf32-avr

Sections:
Idx Name          Size      VMA       LMA       File off  Algn
  0 .text         0000194e  00000000  00000000  00000074  2**1
                  CONTENTS, ALLOC, LOAD, READONLY, CODE
  1 .data         00000000  00800060  00800060  000019c2  2**0
                  CONTENTS, ALLOC, LOAD, DATA
  2 .bss          000000f1  00800060  00800060  000019c2  2**0
                  ALLOC
  3 .comment      00000030  00000000  00000000  000019c2  2**0
                  CONTENTS, READONLY
  4 .note.gnu.avr.deviceinfo 0000003c  00000000  00000000  000019f4  2**2
                  CONTENTS, READONLY
  5 .debug_aranges 000002c8  00000000  00000000  00001a30  2**3
                  CONTENTS, READONLY, DEBUGGING
  6 .debug_info   00004229  00000000  00000000  00001cf8  2**0
                  CONTENTS, READONLY, DEBUGGING
  7 .debug_abbrev 00000d00  00000000  00000000  00005f21  2**0
                  CONTENTS, READONLY, DEBUGGING
  8 .debug_line   00001c8f  00000000  00000000  00006c21  2**0
                  CONTENTS, READONLY, DEBUGGING
  9 .debug_frame  00000e00  00000000  00000000  000088b0  2**2
                  CONTENTS, READONLY, DEBUGGING
 10 .debug_str    00001b27  00000000  00000000  000096b0  2**0
                  CONTENTS, READONLY, DEBUGGING
 11 .debug_loc    00004900  00000000  00000000  0000b1d7  2**0
                  CONTENTS, READONLY, DEBUGGING
 12 .debug_ranges 00000280  00000000  00000000  0000fad7  2**0
                  CONTENTS, READONLY, DEBUGGING

Disassembly of section .text:

00000000 <__vectors>:
       0:	29 c0       	rjmp	.+82     	; 0x54 <__ctors_end>
       2:	43 c0       	rjmp	.+134    	; 0x8a <__bad_interrupt>
       4:	42 c0       	rjmp	.+132    	; 0x8a <__bad_interrupt>
       6:	56 c5       	rjmp	.+2732   	; 0xab4 <__vector_3>
       8:	40 c0       	rjmp	.+128    	; 0x8a <__bad_interrupt>
       a:	3f c0       	rjmp	.+126    	; 0x8a <__bad_interrupt>
       c:	3e c0       	rjmp	.+124    	; 0x8a <__bad_interrupt>
       e:	3d c0       	rjmp	.+122    	; 0x8a <__bad_interrupt>
      10:	3c c0       	rjmp	.+120    	; 0x8a <__bad_interrupt>
      12:	3b c0       	rjmp	.+118    	; 0x8a <__bad_interrupt>
      14:	3a c0       	rjmp	.+116    	; 0x8a <__bad_interrupt>
      16:	ab c5       	rjmp	.+2902   	; 0xb6e <__vector_11>
      18:	38 c0       	rjmp	.+112    	; 0x8a <__bad_interrupt>
      1a:	f9 c5       	rjmp	.+3058   	; 0xc0e <__vector_13>
      1c:	36 c0       	rjmp	.+108    	; 0x8a <__bad_interrupt>
      1e:	35 c0       	rjmp	.+106    	; 0x8a <__bad_interrupt>
      20:	34 c0       	rjmp	.+104    	; 0x8a <__bad_interrupt>
      22:	33 c0       	rjmp	.+102    	; 0x8a <__bad_interrupt>
      24:	32 c0       	rjmp	.+100    	; 0x8a <__bad_interrupt>
      26:	08 4a       	sbci	r16, 0xA8	; 168
      28:	d7 3b       	cpi	r29, 0xB7	; 183
      2a:	3b ce       	rjmp	.-906    	; 0xfffffca2 <__eeprom_end+0xff7efca2>
      2c:	01 6e       	ori	r16, 0xE1	; 225
      2e:	84 bc       	out	0x24, r8	; 36
      30:	bf fd       	.word	0xfdbf	; ????
      32:	c1 2f       	mov	r28, r17
      34:	3d 6c       	ori	r19, 0xCD	; 205
      36:	74 31       	cpi	r23, 0x14	; 20
      38:	9a bd       	out	0x2a, r25	; 42
      3a:	56 83       	std	Z+6, r21	; 0x06
      3c:	3d da       	rcall	.-2950   	; 0xfffff4b8 <__eeprom_end+0xff7ef4b8>
      3e:	3d 00       	.word	0x003d	; ????
      40:	c7 7f       	andi	r28, 0xF7	; 247
      42:	11 be       	out	0x31, r1	; 49
      44:	d9 e4       	ldi	r29, 0x49	; 73
      46:	bb 4c       	sbci	r27, 0xCB	; 203
      48:	3e 91       	ld	r19, -X
      4a:	6b aa       	std	Y+51, r6	; 0x33
      4c:	aa be       	out	0x3a, r10	; 58
      4e:	00 00       	nop
      50:	00 80       	ld	r0, Z
      52:	3f 00       	.word	0x003f	; ????

00000054 <__ctors_end>:
      54:	11 24       	eor	r1, r1
      56:	1f be       	out	0x3f, r1	; 63
      58:	cf e5       	ldi	r28, 0x5F	; 95
      5a:	d4 e0       	ldi	r29, 0x04	; 4
      5c:	de bf       	out	0x3e, r29	; 62
      5e:	cd bf       	out	0x3d, r28	; 61

00000060 <__do_copy_data>:
      60:	10 e0       	ldi	r17, 0x00	; 0
      62:	a0 e6       	ldi	r26, 0x60	; 96
      64:	b0 e0       	ldi	r27, 0x00	; 0
      66:	ee e4       	ldi	r30, 0x4E	; 78
      68:	f9 e1       	ldi	r31, 0x19	; 25
      6a:	02 c0       	rjmp	.+4      	; 0x70 <__do_copy_data+0x10>
      6c:	05 90       	lpm	r0, Z+
      6e:	0d 92       	st	X+, r0
      70:	a0 36       	cpi	r26, 0x60	; 96
      72:	b1 07       	cpc	r27, r17
      74:	d9 f7       	brne	.-10     	; 0x6c <__do_copy_data+0xc>

00000076 <__do_clear_bss>:
      76:	21 e0       	ldi	r18, 0x01	; 1
      78:	a0 e6       	ldi	r26, 0x60	; 96
      7a:	b0 e0       	ldi	r27, 0x00	; 0
      7c:	01 c0       	rjmp	.+2      	; 0x80 <.do_clear_bss_start>

0000007e <.do_clear_bss_loop>:
      7e:	1d 92       	st	X+, r1

00000080 <.do_clear_bss_start>:
      80:	a1 35       	cpi	r26, 0x51	; 81
      82:	b2 07       	cpc	r27, r18
      84:	e1 f7       	brne	.-8      	; 0x7e <.do_clear_bss_loop>
      86:	0a d6       	rcall	.+3092   	; 0xc9c <main>
      88:	60 cc       	rjmp	.-1856   	; 0xfffff94a <__eeprom_end+0xff7ef94a>

0000008a <__bad_interrupt>:
      8a:	ba cf       	rjmp	.-140    	; 0x0 <__vectors>

0000008c <I2C_BeginTransmission>:
	}
	
	return i2c_status;
	
	/* Function End */
}
      8c:	84 ea       	ldi	r24, 0xA4	; 164
      8e:	86 bf       	out	0x36, r24	; 54
      90:	06 b6       	in	r0, 0x36	; 54
      92:	07 fc       	sbrc	r0, 7
      94:	07 c0       	rjmp	.+14     	; 0xa4 <I2C_BeginTransmission+0x18>
      96:	80 e1       	ldi	r24, 0x10	; 16
      98:	97 e2       	ldi	r25, 0x27	; 39
      9a:	06 b6       	in	r0, 0x36	; 54
      9c:	07 fc       	sbrc	r0, 7
      9e:	02 c0       	rjmp	.+4      	; 0xa4 <I2C_BeginTransmission+0x18>
      a0:	01 97       	sbiw	r24, 0x01	; 1
      a2:	d9 f7       	brne	.-10     	; 0x9a <I2C_BeginTransmission+0xe>
      a4:	81 b1       	in	r24, 0x01	; 1
      a6:	88 7f       	andi	r24, 0xF8	; 248
      a8:	08 95       	ret

000000aa <I2C_Transmit>:
      aa:	83 b9       	out	0x03, r24	; 3
      ac:	84 e8       	ldi	r24, 0x84	; 132
      ae:	86 bf       	out	0x36, r24	; 54
      b0:	06 b6       	in	r0, 0x36	; 54
      b2:	07 fc       	sbrc	r0, 7
      b4:	07 c0       	rjmp	.+14     	; 0xc4 <I2C_Transmit+0x1a>
      b6:	80 e1       	ldi	r24, 0x10	; 16
      b8:	97 e2       	ldi	r25, 0x27	; 39
      ba:	06 b6       	in	r0, 0x36	; 54
      bc:	07 fc       	sbrc	r0, 7
      be:	02 c0       	rjmp	.+4      	; 0xc4 <I2C_Transmit+0x1a>
      c0:	01 97       	sbiw	r24, 0x01	; 1
      c2:	d9 f7       	brne	.-10     	; 0xba <I2C_Transmit+0x10>
      c4:	81 b1       	in	r24, 0x01	; 1
      c6:	88 7f       	andi	r24, 0xF8	; 248
      c8:	08 95       	ret

000000ca <I2C_ReceiveACK>:
      ca:	88 ee       	ldi	r24, 0xE8	; 232
      cc:	93 e0       	ldi	r25, 0x03	; 3
      ce:	01 97       	sbiw	r24, 0x01	; 1
      d0:	f1 f7       	brne	.-4      	; 0xce <I2C_ReceiveACK+0x4>
      d2:	84 ec       	ldi	r24, 0xC4	; 196
      d4:	86 bf       	out	0x36, r24	; 54
      d6:	06 b6       	in	r0, 0x36	; 54
      d8:	07 fc       	sbrc	r0, 7
      da:	07 c0       	rjmp	.+14     	; 0xea <I2C_ReceiveACK+0x20>
      dc:	80 e1       	ldi	r24, 0x10	; 16
      de:	97 e2       	ldi	r25, 0x27	; 39
      e0:	06 b6       	in	r0, 0x36	; 54
      e2:	07 fc       	sbrc	r0, 7
      e4:	02 c0       	rjmp	.+4      	; 0xea <I2C_ReceiveACK+0x20>
      e6:	01 97       	sbiw	r24, 0x01	; 1
      e8:	d9 f7       	brne	.-10     	; 0xe0 <I2C_ReceiveACK+0x16>
      ea:	83 b1       	in	r24, 0x03	; 3
      ec:	08 95       	ret

000000ee <I2C_ReceiveNACK>:
      ee:	84 e8       	ldi	r24, 0x84	; 132
      f0:	86 bf       	out	0x36, r24	; 54
      f2:	06 b6       	in	r0, 0x36	; 54
      f4:	07 fc       	sbrc	r0, 7
      f6:	07 c0       	rjmp	.+14     	; 0x106 <I2C_ReceiveNACK+0x18>
      f8:	80 e1       	ldi	r24, 0x10	; 16
      fa:	97 e2       	ldi	r25, 0x27	; 39
      fc:	06 b6       	in	r0, 0x36	; 54
      fe:	07 fc       	sbrc	r0, 7
     100:	02 c0       	rjmp	.+4      	; 0x106 <I2C_ReceiveNACK+0x18>
     102:	01 97       	sbiw	r24, 0x01	; 1
     104:	d9 f7       	brne	.-10     	; 0xfc <I2C_ReceiveNACK+0xe>
     106:	83 b1       	in	r24, 0x03	; 3
     108:	08 95       	ret

0000010a <I2C_EndTransmission>:
     10a:	84 e9       	ldi	r24, 0x94	; 148
     10c:	86 bf       	out	0x36, r24	; 54
     10e:	06 b6       	in	r0, 0x36	; 54
     110:	04 fe       	sbrs	r0, 4
     112:	07 c0       	rjmp	.+14     	; 0x122 <I2C_EndTransmission+0x18>
     114:	80 e1       	ldi	r24, 0x10	; 16
     116:	97 e2       	ldi	r25, 0x27	; 39
     118:	06 b6       	in	r0, 0x36	; 54
     11a:	04 fe       	sbrs	r0, 4
     11c:	02 c0       	rjmp	.+4      	; 0x122 <I2C_EndTransmission+0x18>
     11e:	01 97       	sbiw	r24, 0x01	; 1
     120:	d9 f7       	brne	.-10     	; 0x118 <I2C_EndTransmission+0xe>
     122:	08 95       	ret

00000124 <I2C_Init>:
     124:	81 e0       	ldi	r24, 0x01	; 1
     126:	81 b9       	out	0x01, r24	; 1
     128:	8a e0       	ldi	r24, 0x0A	; 10
     12a:	80 b9       	out	0x00, r24	; 0
     12c:	84 e0       	ldi	r24, 0x04	; 4
     12e:	86 bf       	out	0x36, r24	; 54
     130:	08 95       	ret

00000132 <I2C_IsDeviceReady>:
     132:	df 92       	push	r13
     134:	ef 92       	push	r14
     136:	ff 92       	push	r15
     138:	0f 93       	push	r16
     13a:	1f 93       	push	r17
     13c:	cf 93       	push	r28
     13e:	df 93       	push	r29
     140:	d8 2e       	mov	r13, r24
     142:	eb 01       	movw	r28, r22
     144:	8a 01       	movw	r16, r20
     146:	20 97       	sbiw	r28, 0x00	; 0
     148:	99 f0       	breq	.+38     	; 0x170 <I2C_IsDeviceReady+0x3e>
     14a:	e1 2c       	mov	r14, r1
     14c:	f1 2c       	mov	r15, r1
     14e:	c8 01       	movw	r24, r16
     150:	9d df       	rcall	.-198    	; 0x8c <I2C_BeginTransmission>
     152:	88 30       	cpi	r24, 0x08	; 8
     154:	19 f4       	brne	.+6      	; 0x15c <I2C_IsDeviceReady+0x2a>
     156:	b8 01       	movw	r22, r16
     158:	8d 2d       	mov	r24, r13
     15a:	a7 df       	rcall	.-178    	; 0xaa <I2C_Transmit>
     15c:	88 31       	cpi	r24, 0x18	; 24
     15e:	29 f4       	brne	.+10     	; 0x16a <I2C_IsDeviceReady+0x38>
     160:	c8 01       	movw	r24, r16
     162:	d3 df       	rcall	.-90     	; 0x10a <I2C_EndTransmission>
     164:	8f ef       	ldi	r24, 0xFF	; 255
     166:	e8 1a       	sub	r14, r24
     168:	f8 0a       	sbc	r15, r24
     16a:	21 97       	sbiw	r28, 0x01	; 1
     16c:	81 f7       	brne	.-32     	; 0x14e <I2C_IsDeviceReady+0x1c>
     16e:	02 c0       	rjmp	.+4      	; 0x174 <I2C_IsDeviceReady+0x42>
     170:	e1 2c       	mov	r14, r1
     172:	f1 2c       	mov	r15, r1
     174:	81 e0       	ldi	r24, 0x01	; 1
     176:	ef 28       	or	r14, r15
     178:	09 f4       	brne	.+2      	; 0x17c <I2C_IsDeviceReady+0x4a>
     17a:	80 e0       	ldi	r24, 0x00	; 0
     17c:	df 91       	pop	r29
     17e:	cf 91       	pop	r28
     180:	1f 91       	pop	r17
     182:	0f 91       	pop	r16
     184:	ff 90       	pop	r15
     186:	ef 90       	pop	r14
     188:	df 90       	pop	r13
     18a:	08 95       	ret

0000018c <I2C_Mem_Write>:
					com_stat = I2C_Master_Receive(0xD2,my_received_data,5,100); (0xD2 : Device Address)
			
*/

StatusTypeDef I2C_Mem_Write(uint8_t dev_address , uint32_t mem_address , uint8_t mem_add_size , uint8_t *mem_data , uint32_t quantity , uint16_t time_out) /* This function is for write data to external memory */
{
     18c:	2f 92       	push	r2
     18e:	3f 92       	push	r3
     190:	4f 92       	push	r4
     192:	5f 92       	push	r5
     194:	6f 92       	push	r6
     196:	7f 92       	push	r7
     198:	8f 92       	push	r8
     19a:	9f 92       	push	r9
     19c:	af 92       	push	r10
     19e:	bf 92       	push	r11
     1a0:	cf 92       	push	r12
     1a2:	df 92       	push	r13
     1a4:	ef 92       	push	r14
     1a6:	ff 92       	push	r15
     1a8:	0f 93       	push	r16
     1aa:	1f 93       	push	r17
     1ac:	cf 93       	push	r28
     1ae:	df 93       	push	r29
     1b0:	c8 2f       	mov	r28, r24
     1b2:	2a 01       	movw	r4, r20
     1b4:	3b 01       	movw	r6, r22
     1b6:	d2 2f       	mov	r29, r18
     1b8:	15 01       	movw	r2, r10
	uint32_t write_quantity = quantity; /* Variable for check write quantity */
	uint32_t step_check = 0; /* Variable to check the completed steps */
	
	/* ^^^^^^^^^^^^^^^^^^^^^^^^^^^^^^^^^^^^^^^^^^^^^^^^^^^^^^^^^^^ */
	
	if ( I2C_IsDeviceReady(dev_address , 1 , time_out) == _TRUE ) /* target device is ready */
     1ba:	a5 01       	movw	r20, r10
     1bc:	61 e0       	ldi	r22, 0x01	; 1
     1be:	70 e0       	ldi	r23, 0x00	; 0
     1c0:	b8 df       	rcall	.-144    	; 0x132 <I2C_IsDeviceReady>
     1c2:	81 30       	cpi	r24, 0x01	; 1
     1c4:	09 f0       	breq	.+2      	; 0x1c8 <I2C_Mem_Write+0x3c>
     1c6:	96 c0       	rjmp	.+300    	; 0x2f4 <__EEPROM_REGION_LENGTH__+0xf4>
	{
		
		i2c_status = I2C_BeginTransmission(time_out); /* Begin Transmission */
     1c8:	c5 01       	movw	r24, r10
     1ca:	60 df       	rcall	.-320    	; 0x8c <I2C_BeginTransmission>
		
		/* --------------------------------- */
		
		if ( mem_add_size == _I2C_MEMADD_SIZE_8BIT ) /* Check memory address size */
     1cc:	d8 30       	cpi	r29, 0x08	; 8
     1ce:	41 f5       	brne	.+80     	; 0x220 <__EEPROM_REGION_LENGTH__+0x20>
		{
			
			if ( i2c_status == _MT_START_TRANSMITTED ) /* START condition has been transmitted */
     1d0:	88 30       	cpi	r24, 0x08	; 8
     1d2:	99 f4       	brne	.+38     	; 0x1fa <I2C_Mem_Write+0x6e>
			{
				i2c_status = I2C_Transmit( (dev_address | (uint8_t)((mem_address >> _P0_SHIFT_VAL_MEMADD_SIZE_8BIT) & _P0_BIT_SEL_MEMADD_SIZE_8BIT)) , time_out); /* Send Device Address */
     1d4:	d3 01       	movw	r26, r6
     1d6:	c2 01       	movw	r24, r4
     1d8:	68 94       	set
     1da:	16 f8       	bld	r1, 6
     1dc:	b6 95       	lsr	r27
     1de:	a7 95       	ror	r26
     1e0:	97 95       	ror	r25
     1e2:	87 95       	ror	r24
     1e4:	16 94       	lsr	r1
     1e6:	d1 f7       	brne	.-12     	; 0x1dc <I2C_Mem_Write+0x50>
     1e8:	8e 70       	andi	r24, 0x0E	; 14
     1ea:	b5 01       	movw	r22, r10
     1ec:	8c 2b       	or	r24, r28
     1ee:	5d df       	rcall	.-326    	; 0xaa <I2C_Transmit>
				step_check++; /* The step is completed */
     1f0:	81 2c       	mov	r8, r1
     1f2:	91 2c       	mov	r9, r1
     1f4:	54 01       	movw	r10, r8
     1f6:	83 94       	inc	r8
     1f8:	03 c0       	rjmp	.+6      	; 0x200 <__EEPROM_REGION_LENGTH__>
{
	/* ^^^^^^^^^^^^^^^^^^^^^^^^^^^^^^^^^^^^^^^^^^^^^^^^^^^^^^^^^^^ */
	
	uint8_t i2c_status = 0; /* Variable for check status */
	uint32_t write_quantity = quantity; /* Variable for check write quantity */
	uint32_t step_check = 0; /* Variable to check the completed steps */
     1fa:	81 2c       	mov	r8, r1
     1fc:	91 2c       	mov	r9, r1
     1fe:	54 01       	movw	r10, r8
			}
			else{}
			
			/* ~~~~~~~~~~~~ Send LSB Memory Address ~~~~~~~~~~~~ */
			
			if ( i2c_status == _MT_SLA_W_TRANSMITTED_ACK ) /* Data has been transmitted, and ACK has been received. */
     200:	88 31       	cpi	r24, 0x18	; 24
     202:	41 f4       	brne	.+16     	; 0x214 <__EEPROM_REGION_LENGTH__+0x14>
			{
				i2c_status = I2C_Transmit( (uint8_t)mem_address , time_out ); /* Send second memory Address */
     204:	b1 01       	movw	r22, r2
     206:	84 2d       	mov	r24, r4
     208:	50 df       	rcall	.-352    	; 0xaa <I2C_Transmit>
				step_check++; /* The step is completed */
     20a:	9f ef       	ldi	r25, 0xFF	; 255
     20c:	89 1a       	sub	r8, r25
     20e:	99 0a       	sbc	r9, r25
     210:	a9 0a       	sbc	r10, r25
     212:	b9 0a       	sbc	r11, r25
			
		}
		
		/* --------------------------------- */
		
		for ( ; quantity > 0 ; quantity-- ) /* Loop for write data to memory */
     214:	c1 14       	cp	r12, r1
     216:	d1 04       	cpc	r13, r1
     218:	e1 04       	cpc	r14, r1
     21a:	f1 04       	cpc	r15, r1
     21c:	81 f5       	brne	.+96     	; 0x27e <__EEPROM_REGION_LENGTH__+0x7e>
     21e:	43 c0       	rjmp	.+134    	; 0x2a6 <__EEPROM_REGION_LENGTH__+0xa6>
			
		}
		else
		{
			
			if ( i2c_status == _MT_START_TRANSMITTED ) /* START condition has been transmitted */
     220:	88 30       	cpi	r24, 0x08	; 8
     222:	a1 f4       	brne	.+40     	; 0x24c <__EEPROM_REGION_LENGTH__+0x4c>
			{
				i2c_status = I2C_Transmit( (dev_address | (uint8_t)((mem_address >> _P0_SHIFT_VAL_MEMADD_SIZE_16BIT) & _P0_BIT_SEL_MEMADD_SIZE_16BIT)) , time_out); /* Send Device Address */
     224:	d3 01       	movw	r26, r6
     226:	c2 01       	movw	r24, r4
     228:	07 2e       	mov	r0, r23
     22a:	7f e0       	ldi	r23, 0x0F	; 15
     22c:	b6 95       	lsr	r27
     22e:	a7 95       	ror	r26
     230:	97 95       	ror	r25
     232:	87 95       	ror	r24
     234:	7a 95       	dec	r23
     236:	d1 f7       	brne	.-12     	; 0x22c <__EEPROM_REGION_LENGTH__+0x2c>
     238:	70 2d       	mov	r23, r0
     23a:	82 70       	andi	r24, 0x02	; 2
     23c:	b5 01       	movw	r22, r10
     23e:	8c 2b       	or	r24, r28
     240:	34 df       	rcall	.-408    	; 0xaa <I2C_Transmit>
				step_check++; /* The step is completed */
     242:	81 2c       	mov	r8, r1
     244:	91 2c       	mov	r9, r1
     246:	54 01       	movw	r10, r8
     248:	83 94       	inc	r8
     24a:	03 c0       	rjmp	.+6      	; 0x252 <__EEPROM_REGION_LENGTH__+0x52>
{
	/* ^^^^^^^^^^^^^^^^^^^^^^^^^^^^^^^^^^^^^^^^^^^^^^^^^^^^^^^^^^^ */
	
	uint8_t i2c_status = 0; /* Variable for check status */
	uint32_t write_quantity = quantity; /* Variable for check write quantity */
	uint32_t step_check = 0; /* Variable to check the completed steps */
     24c:	81 2c       	mov	r8, r1
     24e:	91 2c       	mov	r9, r1
     250:	54 01       	movw	r10, r8
			}
			else{}
				
			/* ~~~~~~~~~~~~ Send MSB Memory Address ~~~~~~~~~~~~ */
			
			if ( i2c_status == _MT_SLA_W_TRANSMITTED_ACK ) /* SLA+W has been transmitted, and ACK has been received. */
     252:	88 31       	cpi	r24, 0x18	; 24
     254:	41 f4       	brne	.+16     	; 0x266 <__EEPROM_REGION_LENGTH__+0x66>
			{
				i2c_status = I2C_Transmit( (uint8_t)(mem_address >> _BYTE_SHIFT_VAL) , time_out); /* Send first memory Address */
     256:	b1 01       	movw	r22, r2
     258:	85 2d       	mov	r24, r5
     25a:	27 df       	rcall	.-434    	; 0xaa <I2C_Transmit>
				step_check++; /* The step is completed */
     25c:	ef ef       	ldi	r30, 0xFF	; 255
     25e:	8e 1a       	sub	r8, r30
     260:	9e 0a       	sbc	r9, r30
     262:	ae 0a       	sbc	r10, r30
     264:	be 0a       	sbc	r11, r30
			}
			else{}
			
			/* ~~~~~~~~~~~~ Send LSB Memory Address ~~~~~~~~~~~~ */
			
			if ( i2c_status == _MT_DATA_TRANSMITTED_ACK ) /* Data has been transmitted, and ACK has been received. */
     266:	88 32       	cpi	r24, 0x28	; 40
     268:	09 f0       	breq	.+2      	; 0x26c <__EEPROM_REGION_LENGTH__+0x6c>
     26a:	48 c0       	rjmp	.+144    	; 0x2fc <__EEPROM_REGION_LENGTH__+0xfc>
			{
				i2c_status = I2C_Transmit( (uint8_t)mem_address , time_out ); /* Send second memory Address */
     26c:	b1 01       	movw	r22, r2
     26e:	84 2d       	mov	r24, r4
     270:	1c df       	rcall	.-456    	; 0xaa <I2C_Transmit>
				step_check++; /* The step is completed */
     272:	ff ef       	ldi	r31, 0xFF	; 255
     274:	8f 1a       	sub	r8, r31
     276:	9f 0a       	sbc	r9, r31
     278:	af 0a       	sbc	r10, r31
     27a:	bf 0a       	sbc	r11, r31
     27c:	cb cf       	rjmp	.-106    	; 0x214 <__EEPROM_REGION_LENGTH__+0x14>
		{
			
			if ( i2c_status == _MT_START_TRANSMITTED ) /* START condition has been transmitted */
			{
				i2c_status = I2C_Transmit( (dev_address | (uint8_t)((mem_address >> _P0_SHIFT_VAL_MEMADD_SIZE_16BIT) & _P0_BIT_SEL_MEMADD_SIZE_16BIT)) , time_out); /* Send Device Address */
				step_check++; /* The step is completed */
     27e:	26 01       	movw	r4, r12
     280:	37 01       	movw	r6, r14
		/* --------------------------------- */
		
		for ( ; quantity > 0 ; quantity-- ) /* Loop for write data to memory */
		{
			
			if ( i2c_status == _MT_DATA_TRANSMITTED_ACK ) /* DATA has been transmitted, and ACK has been received. */
     282:	88 32       	cpi	r24, 0x28	; 40
     284:	51 f4       	brne	.+20     	; 0x29a <__EEPROM_REGION_LENGTH__+0x9a>
			{
				
				i2c_status = I2C_Transmit( *mem_data , time_out ); /* Send data to memory */
     286:	b1 01       	movw	r22, r2
     288:	f8 01       	movw	r30, r16
     28a:	81 91       	ld	r24, Z+
     28c:	8f 01       	movw	r16, r30
     28e:	0d df       	rcall	.-486    	; 0xaa <I2C_Transmit>
				step_check++; /* The step is completed */
     290:	ff ef       	ldi	r31, 0xFF	; 255
     292:	8f 1a       	sub	r8, r31
     294:	9f 0a       	sbc	r9, r31
     296:	af 0a       	sbc	r10, r31
     298:	bf 0a       	sbc	r11, r31
			
		}
		
		/* --------------------------------- */
		
		for ( ; quantity > 0 ; quantity-- ) /* Loop for write data to memory */
     29a:	91 e0       	ldi	r25, 0x01	; 1
     29c:	49 1a       	sub	r4, r25
     29e:	51 08       	sbc	r5, r1
     2a0:	61 08       	sbc	r6, r1
     2a2:	71 08       	sbc	r7, r1
     2a4:	71 f7       	brne	.-36     	; 0x282 <__EEPROM_REGION_LENGTH__+0x82>
			
		}
		
		/* --------------------------------- */
		
		if ( i2c_status == _MT_DATA_TRANSMITTED_ACK ) /* DATA has been transmitted, and ACK has been received. */
     2a6:	88 32       	cpi	r24, 0x28	; 40
     2a8:	39 f4       	brne	.+14     	; 0x2b8 <__EEPROM_REGION_LENGTH__+0xb8>
		{
			I2C_EndTransmission(time_out); /* End Transmission */
     2aa:	c1 01       	movw	r24, r2
     2ac:	2e df       	rcall	.-420    	; 0x10a <I2C_EndTransmission>
			step_check++; /* The step is completed */
     2ae:	ef ef       	ldi	r30, 0xFF	; 255
     2b0:	8e 1a       	sub	r8, r30
     2b2:	9e 0a       	sbc	r9, r30
     2b4:	ae 0a       	sbc	r10, r30
     2b6:	be 0a       	sbc	r11, r30
		}
		else{}
		
		/* --------------------------------- */
		
		if ( (mem_add_size == _I2C_MEMADD_SIZE_8BIT) && (step_check == ((_MEMORY_BURST_WRITE_STEPS - 1) + write_quantity)) ) /* The steps are complete */
     2b8:	d8 30       	cpi	r29, 0x08	; 8
     2ba:	69 f4       	brne	.+26     	; 0x2d6 <__EEPROM_REGION_LENGTH__+0xd6>
		{
			i2c_status = _STAT_OK; /* Set status */
		}
		else if ( (mem_add_size == _I2C_MEMADD_SIZE_16BIT) && (step_check == (_MEMORY_BURST_WRITE_STEPS + write_quantity)) ) /* The steps are complete */
		{
			i2c_status = _STAT_OK; /* Set status */
     2bc:	f3 e0       	ldi	r31, 0x03	; 3
     2be:	cf 0e       	add	r12, r31
     2c0:	d1 1c       	adc	r13, r1
     2c2:	e1 1c       	adc	r14, r1
     2c4:	f1 1c       	adc	r15, r1
     2c6:	81 e0       	ldi	r24, 0x01	; 1
     2c8:	c8 14       	cp	r12, r8
     2ca:	d9 04       	cpc	r13, r9
     2cc:	ea 04       	cpc	r14, r10
     2ce:	fb 04       	cpc	r15, r11
     2d0:	e1 f0       	breq	.+56     	; 0x30a <__EEPROM_REGION_LENGTH__+0x10a>
     2d2:	80 e0       	ldi	r24, 0x00	; 0
     2d4:	1a c0       	rjmp	.+52     	; 0x30a <__EEPROM_REGION_LENGTH__+0x10a>
		
		if ( (mem_add_size == _I2C_MEMADD_SIZE_8BIT) && (step_check == ((_MEMORY_BURST_WRITE_STEPS - 1) + write_quantity)) ) /* The steps are complete */
		{
			i2c_status = _STAT_OK; /* Set status */
		}
		else if ( (mem_add_size == _I2C_MEMADD_SIZE_16BIT) && (step_check == (_MEMORY_BURST_WRITE_STEPS + write_quantity)) ) /* The steps are complete */
     2d6:	d0 31       	cpi	r29, 0x10	; 16
     2d8:	79 f4       	brne	.+30     	; 0x2f8 <__EEPROM_REGION_LENGTH__+0xf8>
		{
			i2c_status = _STAT_OK; /* Set status */
     2da:	84 e0       	ldi	r24, 0x04	; 4
     2dc:	c8 0e       	add	r12, r24
     2de:	d1 1c       	adc	r13, r1
     2e0:	e1 1c       	adc	r14, r1
     2e2:	f1 1c       	adc	r15, r1
     2e4:	81 e0       	ldi	r24, 0x01	; 1
     2e6:	c8 14       	cp	r12, r8
     2e8:	d9 04       	cpc	r13, r9
     2ea:	ea 04       	cpc	r14, r10
     2ec:	fb 04       	cpc	r15, r11
     2ee:	69 f0       	breq	.+26     	; 0x30a <__EEPROM_REGION_LENGTH__+0x10a>
     2f0:	80 e0       	ldi	r24, 0x00	; 0
     2f2:	0b c0       	rjmp	.+22     	; 0x30a <__EEPROM_REGION_LENGTH__+0x10a>
		}
		
	}
	else
	{
		i2c_status = _STAT_ERROR; /* Set status */
     2f4:	80 e0       	ldi	r24, 0x00	; 0
     2f6:	09 c0       	rjmp	.+18     	; 0x30a <__EEPROM_REGION_LENGTH__+0x10a>
		{
			i2c_status = _STAT_OK; /* Set status */
		}
		else
		{
			i2c_status = _STAT_ERROR; /* Set status */
     2f8:	80 e0       	ldi	r24, 0x00	; 0
	else
	{
		i2c_status = _STAT_ERROR; /* Set status */
	}
	
	return i2c_status;
     2fa:	07 c0       	rjmp	.+14     	; 0x30a <__EEPROM_REGION_LENGTH__+0x10a>
			
		}
		
		/* --------------------------------- */
		
		for ( ; quantity > 0 ; quantity-- ) /* Loop for write data to memory */
     2fc:	c1 14       	cp	r12, r1
     2fe:	d1 04       	cpc	r13, r1
     300:	e1 04       	cpc	r14, r1
     302:	f1 04       	cpc	r15, r1
     304:	09 f0       	breq	.+2      	; 0x308 <__EEPROM_REGION_LENGTH__+0x108>
     306:	bb cf       	rjmp	.-138    	; 0x27e <__EEPROM_REGION_LENGTH__+0x7e>
     308:	e6 cf       	rjmp	.-52     	; 0x2d6 <__EEPROM_REGION_LENGTH__+0xd6>
	}
	
	return i2c_status;
	
	/* Function End */
}
     30a:	df 91       	pop	r29
     30c:	cf 91       	pop	r28
     30e:	1f 91       	pop	r17
     310:	0f 91       	pop	r16
     312:	ff 90       	pop	r15
     314:	ef 90       	pop	r14
     316:	df 90       	pop	r13
     318:	cf 90       	pop	r12
     31a:	bf 90       	pop	r11
     31c:	af 90       	pop	r10
     31e:	9f 90       	pop	r9
     320:	8f 90       	pop	r8
     322:	7f 90       	pop	r7
     324:	6f 90       	pop	r6
     326:	5f 90       	pop	r5
     328:	4f 90       	pop	r4
     32a:	3f 90       	pop	r3
     32c:	2f 90       	pop	r2
     32e:	08 95       	ret

00000330 <I2C_Mem_Read>:
					com_stat = I2C_Mem_Write(0xA0 , 75 , _I2C_MEMADD_SIZE_16BIT , my_data , 20 , 100); (0xA0 : Device Address)
			
*/

StatusTypeDef I2C_Mem_Read(uint8_t dev_address , uint32_t mem_address , uint8_t mem_add_size , uint8_t *mem_data , uint32_t quantity , uint16_t time_out ) /* This function is for read data from external memory */
{
     330:	2f 92       	push	r2
     332:	3f 92       	push	r3
     334:	4f 92       	push	r4
     336:	5f 92       	push	r5
     338:	6f 92       	push	r6
     33a:	7f 92       	push	r7
     33c:	8f 92       	push	r8
     33e:	9f 92       	push	r9
     340:	af 92       	push	r10
     342:	bf 92       	push	r11
     344:	cf 92       	push	r12
     346:	df 92       	push	r13
     348:	ef 92       	push	r14
     34a:	ff 92       	push	r15
     34c:	0f 93       	push	r16
     34e:	1f 93       	push	r17
     350:	cf 93       	push	r28
     352:	df 93       	push	r29
     354:	c8 2f       	mov	r28, r24
     356:	2a 01       	movw	r4, r20
     358:	3b 01       	movw	r6, r22
     35a:	d2 2f       	mov	r29, r18
     35c:	15 01       	movw	r2, r10
	uint32_t read_quantity = quantity; /* Variable for check read quantity */
	uint32_t step_check = 0; /* Variable to check the completed steps */
	
	/* ^^^^^^^^^^^^^^^^^^^^^^^^^^^^^^^^^^^^^^^^^^^^^^^^^^^^^^^^^^^ */
	
	if ( I2C_IsDeviceReady(dev_address , 1 , time_out) == _TRUE ) /* target device is ready */
     35e:	a5 01       	movw	r20, r10
     360:	61 e0       	ldi	r22, 0x01	; 1
     362:	70 e0       	ldi	r23, 0x00	; 0
     364:	e6 de       	rcall	.-564    	; 0x132 <I2C_IsDeviceReady>
     366:	81 30       	cpi	r24, 0x01	; 1
     368:	09 f0       	breq	.+2      	; 0x36c <I2C_Mem_Read+0x3c>
     36a:	c1 c0       	rjmp	.+386    	; 0x4ee <__stack+0x8f>
	{
		
		i2c_status = I2C_BeginTransmission(time_out); /* Begin Transmission */
     36c:	c5 01       	movw	r24, r10
     36e:	8e de       	rcall	.-740    	; 0x8c <I2C_BeginTransmission>
		
		/* --------------------------------- */
		
		if ( mem_add_size == _I2C_MEMADD_SIZE_8BIT ) /* Check memory address size */
     370:	d8 30       	cpi	r29, 0x08	; 8
     372:	19 f5       	brne	.+70     	; 0x3ba <I2C_Mem_Read+0x8a>
		{
			
			if ( i2c_status == _MT_START_TRANSMITTED ) /* START condition has been transmitted */
     374:	88 30       	cpi	r24, 0x08	; 8
     376:	99 f4       	brne	.+38     	; 0x39e <I2C_Mem_Read+0x6e>
			{
				i2c_status = I2C_Transmit( (dev_address | (uint8_t)((mem_address >> _P0_SHIFT_VAL_MEMADD_SIZE_8BIT) & _P0_BIT_SEL_MEMADD_SIZE_8BIT)) , time_out ); /* Send device Address */
     378:	d3 01       	movw	r26, r6
     37a:	c2 01       	movw	r24, r4
     37c:	68 94       	set
     37e:	16 f8       	bld	r1, 6
     380:	b6 95       	lsr	r27
     382:	a7 95       	ror	r26
     384:	97 95       	ror	r25
     386:	87 95       	ror	r24
     388:	16 94       	lsr	r1
     38a:	d1 f7       	brne	.-12     	; 0x380 <I2C_Mem_Read+0x50>
     38c:	8e 70       	andi	r24, 0x0E	; 14
     38e:	b5 01       	movw	r22, r10
     390:	8c 2b       	or	r24, r28
     392:	8b de       	rcall	.-746    	; 0xaa <I2C_Transmit>
				step_check++; /* The step is completed */
     394:	81 2c       	mov	r8, r1
     396:	91 2c       	mov	r9, r1
     398:	54 01       	movw	r10, r8
     39a:	83 94       	inc	r8
     39c:	03 c0       	rjmp	.+6      	; 0x3a4 <I2C_Mem_Read+0x74>
{
	/* ^^^^^^^^^^^^^^^^^^^^^^^^^^^^^^^^^^^^^^^^^^^^^^^^^^^^^^^^^^^ */
	
	uint8_t i2c_status = 0; /* Variable for check status */
	uint32_t read_quantity = quantity; /* Variable for check read quantity */
	uint32_t step_check = 0; /* Variable to check the completed steps */
     39e:	81 2c       	mov	r8, r1
     3a0:	91 2c       	mov	r9, r1
     3a2:	54 01       	movw	r10, r8
			}
			else{}
			
			/* ~~~~~~~~~~~~ Send LSB Memory Address ~~~~~~~~~~~~ */
			
			if ( i2c_status == _MT_SLA_W_TRANSMITTED_ACK ) /* Data has been transmitted, and ACK has been received. */
     3a4:	88 31       	cpi	r24, 0x18	; 24
     3a6:	b1 f5       	brne	.+108    	; 0x414 <__DATA_REGION_LENGTH__+0x14>
			{
				i2c_status = I2C_Transmit( (uint8_t)mem_address , time_out ); /* Send second memory Address */
     3a8:	b1 01       	movw	r22, r2
     3aa:	84 2d       	mov	r24, r4
     3ac:	7e de       	rcall	.-772    	; 0xaa <I2C_Transmit>
				step_check++; /* The step is completed */
     3ae:	9f ef       	ldi	r25, 0xFF	; 255
     3b0:	89 1a       	sub	r8, r25
     3b2:	99 0a       	sbc	r9, r25
     3b4:	a9 0a       	sbc	r10, r25
     3b6:	b9 0a       	sbc	r11, r25
     3b8:	2d c0       	rjmp	.+90     	; 0x414 <__DATA_REGION_LENGTH__+0x14>
			
		}
		else
		{
			
			if ( i2c_status == _MT_START_TRANSMITTED ) /* START condition has been transmitted */
     3ba:	88 30       	cpi	r24, 0x08	; 8
     3bc:	a1 f4       	brne	.+40     	; 0x3e6 <I2C_Mem_Read+0xb6>
			{
				i2c_status = I2C_Transmit( (dev_address | (uint8_t)((mem_address >> _P0_SHIFT_VAL_MEMADD_SIZE_16BIT) & _P0_BIT_SEL_MEMADD_SIZE_16BIT)) , time_out ); /* Send device Address */
     3be:	d3 01       	movw	r26, r6
     3c0:	c2 01       	movw	r24, r4
     3c2:	07 2e       	mov	r0, r23
     3c4:	7f e0       	ldi	r23, 0x0F	; 15
     3c6:	b6 95       	lsr	r27
     3c8:	a7 95       	ror	r26
     3ca:	97 95       	ror	r25
     3cc:	87 95       	ror	r24
     3ce:	7a 95       	dec	r23
     3d0:	d1 f7       	brne	.-12     	; 0x3c6 <I2C_Mem_Read+0x96>
     3d2:	70 2d       	mov	r23, r0
     3d4:	82 70       	andi	r24, 0x02	; 2
     3d6:	b5 01       	movw	r22, r10
     3d8:	8c 2b       	or	r24, r28
     3da:	67 de       	rcall	.-818    	; 0xaa <I2C_Transmit>
				step_check++; /* The step is completed */
     3dc:	81 2c       	mov	r8, r1
     3de:	91 2c       	mov	r9, r1
     3e0:	54 01       	movw	r10, r8
     3e2:	83 94       	inc	r8
     3e4:	03 c0       	rjmp	.+6      	; 0x3ec <I2C_Mem_Read+0xbc>
{
	/* ^^^^^^^^^^^^^^^^^^^^^^^^^^^^^^^^^^^^^^^^^^^^^^^^^^^^^^^^^^^ */
	
	uint8_t i2c_status = 0; /* Variable for check status */
	uint32_t read_quantity = quantity; /* Variable for check read quantity */
	uint32_t step_check = 0; /* Variable to check the completed steps */
     3e6:	81 2c       	mov	r8, r1
     3e8:	91 2c       	mov	r9, r1
     3ea:	54 01       	movw	r10, r8
			}
			else{}
			
			/* ~~~~~~~~~~~~ Send MSB Memory Address ~~~~~~~~~~~~ */
			
			if ( i2c_status == _MT_SLA_W_TRANSMITTED_ACK ) /* SLA+W has been transmitted, and ACK has been received. */
     3ec:	88 31       	cpi	r24, 0x18	; 24
     3ee:	41 f4       	brne	.+16     	; 0x400 <__DATA_REGION_LENGTH__>
			{
				i2c_status = I2C_Transmit( (uint8_t)(mem_address >> _BYTE_SHIFT_VAL) , time_out); /* Send first memory Address */
     3f0:	b1 01       	movw	r22, r2
     3f2:	85 2d       	mov	r24, r5
     3f4:	5a de       	rcall	.-844    	; 0xaa <I2C_Transmit>
				step_check++; /* The step is completed */
     3f6:	ef ef       	ldi	r30, 0xFF	; 255
     3f8:	8e 1a       	sub	r8, r30
     3fa:	9e 0a       	sbc	r9, r30
     3fc:	ae 0a       	sbc	r10, r30
     3fe:	be 0a       	sbc	r11, r30
			}
			else{}
			
			/* ~~~~~~~~~~~~ Send LSB Memory Address ~~~~~~~~~~~~ */
			
			if ( i2c_status == _MT_DATA_TRANSMITTED_ACK ) /* Data has been transmitted, and ACK has been received. */
     400:	88 32       	cpi	r24, 0x28	; 40
     402:	89 f4       	brne	.+34     	; 0x426 <__DATA_REGION_LENGTH__+0x26>
			{
				i2c_status = I2C_Transmit( (uint8_t)mem_address , time_out ); /* Send second memory Address */
     404:	b1 01       	movw	r22, r2
     406:	84 2d       	mov	r24, r4
     408:	50 de       	rcall	.-864    	; 0xaa <I2C_Transmit>
				step_check++; /* The step is completed */
     40a:	ff ef       	ldi	r31, 0xFF	; 255
     40c:	8f 1a       	sub	r8, r31
     40e:	9f 0a       	sbc	r9, r31
     410:	af 0a       	sbc	r10, r31
     412:	bf 0a       	sbc	r11, r31
			
		}
		
		/* --------------------------------- */
		
		if ( i2c_status == _MT_DATA_TRANSMITTED_ACK ) /* DATA has been transmitted, and ACK has been received. */
     414:	88 32       	cpi	r24, 0x28	; 40
     416:	39 f4       	brne	.+14     	; 0x426 <__DATA_REGION_LENGTH__+0x26>
		{
			i2c_status = I2C_BeginTransmission(time_out); /* Repeat Start */
     418:	c1 01       	movw	r24, r2
     41a:	38 de       	rcall	.-912    	; 0x8c <I2C_BeginTransmission>
			step_check++; /* The step is completed */
     41c:	9f ef       	ldi	r25, 0xFF	; 255
     41e:	89 1a       	sub	r8, r25
     420:	99 0a       	sbc	r9, r25
     422:	a9 0a       	sbc	r10, r25
     424:	b9 0a       	sbc	r11, r25
		}
		else{}
		
		/* --------------------------------- */
		
		if ( i2c_status == _MT_REP_START_TRANSMITTED ) /* A repeated START condition has been transmitted */
     426:	80 31       	cpi	r24, 0x10	; 16
     428:	49 f4       	brne	.+18     	; 0x43c <__DATA_REGION_LENGTH__+0x3c>
		{
			i2c_status = I2C_Transmit( (dev_address | _DEVICE_READ) , time_out ); /* Send device Address */
     42a:	b1 01       	movw	r22, r2
     42c:	8c 2f       	mov	r24, r28
     42e:	81 60       	ori	r24, 0x01	; 1
     430:	3c de       	rcall	.-904    	; 0xaa <I2C_Transmit>
			step_check++; /* The step is completed */
     432:	ef ef       	ldi	r30, 0xFF	; 255
     434:	8e 1a       	sub	r8, r30
     436:	9e 0a       	sbc	r9, r30
     438:	ae 0a       	sbc	r10, r30
     43a:	be 0a       	sbc	r11, r30
		}
		else{}
		
		/* --------------------------------- */
		
		for ( ; quantity > 1 ; quantity-- ) /* Loop for write data to register */
     43c:	f2 e0       	ldi	r31, 0x02	; 2
     43e:	cf 16       	cp	r12, r31
     440:	d1 04       	cpc	r13, r1
     442:	e1 04       	cpc	r14, r1
     444:	f1 04       	cpc	r15, r1
     446:	e8 f0       	brcs	.+58     	; 0x482 <__stack+0x23>
     448:	26 01       	movw	r4, r12
     44a:	37 01       	movw	r6, r14
		{
			
			if ( ( i2c_status == _MR_SLA_R_TRANSMITTED_ACK ) || ( i2c_status == _MR_DATA_RECEIVED_ACK ) ) /* SLA+R/DATA has been transmitted, and ACK has been received. */
     44c:	98 2f       	mov	r25, r24
     44e:	9f 7e       	andi	r25, 0xEF	; 239
     450:	90 34       	cpi	r25, 0x40	; 64
     452:	61 f4       	brne	.+24     	; 0x46c <__stack+0xd>
			{
				
				*mem_data = I2C_ReceiveACK(time_out); /* Receive Data with send ACK */
     454:	c1 01       	movw	r24, r2
     456:	39 de       	rcall	.-910    	; 0xca <I2C_ReceiveACK>
     458:	f8 01       	movw	r30, r16
     45a:	81 93       	st	Z+, r24
     45c:	8f 01       	movw	r16, r30
/* ------------------ Functions ------------------ */

uint8_t I2C_Status(void) /* Function for take I2C status */
{
	
	return (_I2C_SR & _I2C_STATUS); /* Return I2C status */
     45e:	81 b1       	in	r24, 0x01	; 1
     460:	88 7f       	andi	r24, 0xF8	; 248
			if ( ( i2c_status == _MR_SLA_R_TRANSMITTED_ACK ) || ( i2c_status == _MR_DATA_RECEIVED_ACK ) ) /* SLA+R/DATA has been transmitted, and ACK has been received. */
			{
				
				*mem_data = I2C_ReceiveACK(time_out); /* Receive Data with send ACK */
				i2c_status = I2C_Status(); /* I2C status take */
				step_check++; /* The step is completed */
     462:	ff ef       	ldi	r31, 0xFF	; 255
     464:	8f 1a       	sub	r8, r31
     466:	9f 0a       	sbc	r9, r31
     468:	af 0a       	sbc	r10, r31
     46a:	bf 0a       	sbc	r11, r31
		}
		else{}
		
		/* --------------------------------- */
		
		for ( ; quantity > 1 ; quantity-- ) /* Loop for write data to register */
     46c:	91 e0       	ldi	r25, 0x01	; 1
     46e:	49 1a       	sub	r4, r25
     470:	51 08       	sbc	r5, r1
     472:	61 08       	sbc	r6, r1
     474:	71 08       	sbc	r7, r1
     476:	e1 e0       	ldi	r30, 0x01	; 1
     478:	4e 16       	cp	r4, r30
     47a:	51 04       	cpc	r5, r1
     47c:	61 04       	cpc	r6, r1
     47e:	71 04       	cpc	r7, r1
     480:	29 f7       	brne	.-54     	; 0x44c <__DATA_REGION_LENGTH__+0x4c>
			
		}
		
		/* --------------------------------- */
		
		if ( ( i2c_status == _MR_SLA_R_TRANSMITTED_ACK ) || ( i2c_status == _MR_DATA_RECEIVED_ACK ) ) /* SLA+R/DATA has been transmitted, and ACK has been received. */
     482:	98 2f       	mov	r25, r24
     484:	9f 7e       	andi	r25, 0xEF	; 239
     486:	90 34       	cpi	r25, 0x40	; 64
     488:	59 f4       	brne	.+22     	; 0x4a0 <__stack+0x41>
		{
			
			*mem_data = I2C_ReceiveNACK(time_out); /* Receive Data with send NACK */
     48a:	c1 01       	movw	r24, r2
     48c:	30 de       	rcall	.-928    	; 0xee <I2C_ReceiveNACK>
     48e:	f8 01       	movw	r30, r16
     490:	80 83       	st	Z, r24
/* ------------------ Functions ------------------ */

uint8_t I2C_Status(void) /* Function for take I2C status */
{
	
	return (_I2C_SR & _I2C_STATUS); /* Return I2C status */
     492:	81 b1       	in	r24, 0x01	; 1
     494:	88 7f       	andi	r24, 0xF8	; 248
		if ( ( i2c_status == _MR_SLA_R_TRANSMITTED_ACK ) || ( i2c_status == _MR_DATA_RECEIVED_ACK ) ) /* SLA+R/DATA has been transmitted, and ACK has been received. */
		{
			
			*mem_data = I2C_ReceiveNACK(time_out); /* Receive Data with send NACK */
			i2c_status = I2C_Status(); /* I2C status take */
			step_check++; /* The step is completed */
     496:	ff ef       	ldi	r31, 0xFF	; 255
     498:	8f 1a       	sub	r8, r31
     49a:	9f 0a       	sbc	r9, r31
     49c:	af 0a       	sbc	r10, r31
     49e:	bf 0a       	sbc	r11, r31
		}
		else{}
		
		/* --------------------------------- */
		
		if ( i2c_status == _MR_DATA_RECEIVED_NACK ) /* Data byte has been received; NOT ACK has been returned */
     4a0:	88 35       	cpi	r24, 0x58	; 88
     4a2:	39 f4       	brne	.+14     	; 0x4b2 <__stack+0x53>
		{
			I2C_EndTransmission(time_out); /* End Transmission */
     4a4:	c1 01       	movw	r24, r2
     4a6:	31 de       	rcall	.-926    	; 0x10a <I2C_EndTransmission>
			step_check++; /* The step is completed */
     4a8:	8f ef       	ldi	r24, 0xFF	; 255
     4aa:	88 1a       	sub	r8, r24
     4ac:	98 0a       	sbc	r9, r24
     4ae:	a8 0a       	sbc	r10, r24
     4b0:	b8 0a       	sbc	r11, r24
		}
		else{}
		
		/* --------------------------------- */
		
		if ( (mem_add_size == _I2C_MEMADD_SIZE_8BIT) && (step_check == ((_MEMORY_BURST_READ_STEPS - 1) + read_quantity)) ) /* The steps are complete */
     4b2:	d8 30       	cpi	r29, 0x08	; 8
     4b4:	69 f4       	brne	.+26     	; 0x4d0 <__stack+0x71>
		{
			i2c_status = _STAT_OK; /* Set status */
		}
		else if ( (mem_add_size == _I2C_MEMADD_SIZE_16BIT) && (step_check == (_MEMORY_BURST_READ_STEPS + read_quantity)) ) /* The steps are complete */
		{
			i2c_status = _STAT_OK; /* Set status */
     4b6:	95 e0       	ldi	r25, 0x05	; 5
     4b8:	c9 0e       	add	r12, r25
     4ba:	d1 1c       	adc	r13, r1
     4bc:	e1 1c       	adc	r14, r1
     4be:	f1 1c       	adc	r15, r1
     4c0:	81 e0       	ldi	r24, 0x01	; 1
     4c2:	c8 14       	cp	r12, r8
     4c4:	d9 04       	cpc	r13, r9
     4c6:	ea 04       	cpc	r14, r10
     4c8:	fb 04       	cpc	r15, r11
     4ca:	a1 f0       	breq	.+40     	; 0x4f4 <__stack+0x95>
     4cc:	80 e0       	ldi	r24, 0x00	; 0
     4ce:	12 c0       	rjmp	.+36     	; 0x4f4 <__stack+0x95>
		
		if ( (mem_add_size == _I2C_MEMADD_SIZE_8BIT) && (step_check == ((_MEMORY_BURST_READ_STEPS - 1) + read_quantity)) ) /* The steps are complete */
		{
			i2c_status = _STAT_OK; /* Set status */
		}
		else if ( (mem_add_size == _I2C_MEMADD_SIZE_16BIT) && (step_check == (_MEMORY_BURST_READ_STEPS + read_quantity)) ) /* The steps are complete */
     4d0:	d0 31       	cpi	r29, 0x10	; 16
     4d2:	79 f4       	brne	.+30     	; 0x4f2 <__stack+0x93>
		{
			i2c_status = _STAT_OK; /* Set status */
     4d4:	e6 e0       	ldi	r30, 0x06	; 6
     4d6:	ce 0e       	add	r12, r30
     4d8:	d1 1c       	adc	r13, r1
     4da:	e1 1c       	adc	r14, r1
     4dc:	f1 1c       	adc	r15, r1
     4de:	81 e0       	ldi	r24, 0x01	; 1
     4e0:	c8 14       	cp	r12, r8
     4e2:	d9 04       	cpc	r13, r9
     4e4:	ea 04       	cpc	r14, r10
     4e6:	fb 04       	cpc	r15, r11
     4e8:	29 f0       	breq	.+10     	; 0x4f4 <__stack+0x95>
     4ea:	80 e0       	ldi	r24, 0x00	; 0
     4ec:	03 c0       	rjmp	.+6      	; 0x4f4 <__stack+0x95>
		}
		
	}
	else
	{
		i2c_status = _STAT_ERROR; /* Set status */
     4ee:	80 e0       	ldi	r24, 0x00	; 0
     4f0:	01 c0       	rjmp	.+2      	; 0x4f4 <__stack+0x95>
		{
			i2c_status = _STAT_OK; /* Set status */
		}
		else
		{
			i2c_status = _STAT_ERROR; /* Set status */
     4f2:	80 e0       	ldi	r24, 0x00	; 0
	}
	
	return i2c_status;
	
	/* Function End */
}
     4f4:	df 91       	pop	r29
     4f6:	cf 91       	pop	r28
     4f8:	1f 91       	pop	r17
     4fa:	0f 91       	pop	r16
     4fc:	ff 90       	pop	r15
     4fe:	ef 90       	pop	r14
     500:	df 90       	pop	r13
     502:	cf 90       	pop	r12
     504:	bf 90       	pop	r11
     506:	af 90       	pop	r10
     508:	9f 90       	pop	r9
     50a:	8f 90       	pop	r8
     50c:	7f 90       	pop	r7
     50e:	6f 90       	pop	r6
     510:	5f 90       	pop	r5
     512:	4f 90       	pop	r4
     514:	3f 90       	pop	r3
     516:	2f 90       	pop	r2
     518:	08 95       	ret

0000051a <float_to_byte>:
	P[0][1] -= K[0] * P01_temp;
	P[1][0] -= K[1] * P00_temp;
	P[1][1] -= K[1] * P01_temp;

	return angle;
}
     51a:	cf 93       	push	r28
     51c:	df 93       	push	r29
     51e:	00 d0       	rcall	.+0      	; 0x520 <float_to_byte+0x6>
     520:	00 d0       	rcall	.+0      	; 0x522 <float_to_byte+0x8>
     522:	cd b7       	in	r28, 0x3d	; 61
     524:	de b7       	in	r29, 0x3e	; 62
     526:	69 83       	std	Y+1, r22	; 0x01
     528:	7a 83       	std	Y+2, r23	; 0x02
     52a:	8b 83       	std	Y+3, r24	; 0x03
     52c:	9c 83       	std	Y+4, r25	; 0x04
     52e:	fe 01       	movw	r30, r28
     530:	31 96       	adiw	r30, 0x01	; 1
     532:	da 01       	movw	r26, r20
     534:	a2 0f       	add	r26, r18
     536:	b3 1f       	adc	r27, r19
     538:	9e 01       	movw	r18, r28
     53a:	2b 5f       	subi	r18, 0xFB	; 251
     53c:	3f 4f       	sbci	r19, 0xFF	; 255
     53e:	81 91       	ld	r24, Z+
     540:	8d 93       	st	X+, r24
     542:	e2 17       	cp	r30, r18
     544:	f3 07       	cpc	r31, r19
     546:	d9 f7       	brne	.-10     	; 0x53e <float_to_byte+0x24>
     548:	0f 90       	pop	r0
     54a:	0f 90       	pop	r0
     54c:	0f 90       	pop	r0
     54e:	0f 90       	pop	r0
     550:	df 91       	pop	r29
     552:	cf 91       	pop	r28
     554:	08 95       	ret

00000556 <All_axis_kalman_filter>:

float All_axis_kalman_filter(kalman_t *axis, float measured_angle, float gyro_rate, float dt) {
     556:	4f 92       	push	r4
     558:	5f 92       	push	r5
     55a:	6f 92       	push	r6
     55c:	7f 92       	push	r7
     55e:	8f 92       	push	r8
     560:	9f 92       	push	r9
     562:	af 92       	push	r10
     564:	bf 92       	push	r11
     566:	cf 92       	push	r12
     568:	df 92       	push	r13
     56a:	ef 92       	push	r14
     56c:	ff 92       	push	r15
     56e:	0f 93       	push	r16
     570:	1f 93       	push	r17
     572:	cf 93       	push	r28
     574:	df 93       	push	r29
     576:	cd b7       	in	r28, 0x3d	; 61
     578:	de b7       	in	r29, 0x3e	; 62
     57a:	a2 97       	sbiw	r28, 0x22	; 34
     57c:	0f b6       	in	r0, 0x3f	; 63
     57e:	f8 94       	cli
     580:	de bf       	out	0x3e, r29	; 62
     582:	0f be       	out	0x3f, r0	; 63
     584:	cd bf       	out	0x3d, r28	; 61
     586:	9a a3       	std	Y+34, r25	; 0x22
     588:	89 a3       	std	Y+33, r24	; 0x21
     58a:	49 87       	std	Y+9, r20	; 0x09
     58c:	5a 87       	std	Y+10, r21	; 0x0a
     58e:	6b 87       	std	Y+11, r22	; 0x0b
     590:	7c 87       	std	Y+12, r23	; 0x0c
     592:	c9 01       	movw	r24, r18
     594:	b8 01       	movw	r22, r16

	// Перший крок: оцінка нового стану на основі прогнозу
	axis->angle += dt * (gyro_rate - axis->bias);
     596:	a9 a1       	ldd	r26, Y+33	; 0x21
     598:	ba a1       	ldd	r27, Y+34	; 0x22
     59a:	14 96       	adiw	r26, 0x04	; 4
     59c:	2d 91       	ld	r18, X+
     59e:	3d 91       	ld	r19, X+
     5a0:	4d 91       	ld	r20, X+
     5a2:	5c 91       	ld	r21, X
     5a4:	17 97       	sbiw	r26, 0x07	; 7
     5a6:	29 8b       	std	Y+17, r18	; 0x11
     5a8:	3a 8b       	std	Y+18, r19	; 0x12
     5aa:	4b 8b       	std	Y+19, r20	; 0x13
     5ac:	5c 8b       	std	Y+20, r21	; 0x14
     5ae:	10 d7       	rcall	.+3616   	; 0x13d0 <__subsf3>
     5b0:	a7 01       	movw	r20, r14
     5b2:	96 01       	movw	r18, r12
     5b4:	4f d9       	rcall	.-3426   	; 0xfffff854 <__eeprom_end+0xff7ef854>
     5b6:	e9 a1       	ldd	r30, Y+33	; 0x21
     5b8:	fa a1       	ldd	r31, Y+34	; 0x22
     5ba:	20 81       	ld	r18, Z
     5bc:	31 81       	ldd	r19, Z+1	; 0x01
     5be:	42 81       	ldd	r20, Z+2	; 0x02
     5c0:	53 81       	ldd	r21, Z+3	; 0x03
     5c2:	07 d7       	rcall	.+3598   	; 0x13d2 <__addsf3>
     5c4:	69 8f       	std	Y+25, r22	; 0x19
     5c6:	7a 8f       	std	Y+26, r23	; 0x1a
     5c8:	8b 8f       	std	Y+27, r24	; 0x1b
     5ca:	9c 8f       	std	Y+28, r25	; 0x1c

	// Другий крок: оновлення коваріаційної матриці на основі прогнозу
	axis->P[0][0] += dt * (dt * axis->P[1][1] - axis->P[0][1] - axis->P[1][0] + KALMAN_ACEL_Q);
     5cc:	a9 a1       	ldd	r26, Y+33	; 0x21
     5ce:	ba a1       	ldd	r27, Y+34	; 0x22
     5d0:	54 96       	adiw	r26, 0x14	; 20
     5d2:	2d 91       	ld	r18, X+
     5d4:	3d 91       	ld	r19, X+
     5d6:	4d 91       	ld	r20, X+
     5d8:	5c 91       	ld	r21, X
     5da:	57 97       	sbiw	r26, 0x17	; 23
     5dc:	2d 8b       	std	Y+21, r18	; 0x15
     5de:	3e 8b       	std	Y+22, r19	; 0x16
     5e0:	4f 8b       	std	Y+23, r20	; 0x17
     5e2:	58 8f       	std	Y+24, r21	; 0x18
     5e4:	c7 01       	movw	r24, r14
     5e6:	b6 01       	movw	r22, r12
     5e8:	35 d9       	rcall	.-3478   	; 0xfffff854 <__eeprom_end+0xff7ef854>
     5ea:	69 83       	std	Y+1, r22	; 0x01
     5ec:	7a 83       	std	Y+2, r23	; 0x02
     5ee:	8b 83       	std	Y+3, r24	; 0x03
     5f0:	9c 83       	std	Y+4, r25	; 0x04
     5f2:	e9 a1       	ldd	r30, Y+33	; 0x21
     5f4:	fa a1       	ldd	r31, Y+34	; 0x22
     5f6:	44 84       	ldd	r4, Z+12	; 0x0c
     5f8:	55 84       	ldd	r5, Z+13	; 0x0d
     5fa:	66 84       	ldd	r6, Z+14	; 0x0e
     5fc:	77 84       	ldd	r7, Z+15	; 0x0f
     5fe:	80 88       	ldd	r8, Z+16	; 0x10
     600:	91 88       	ldd	r9, Z+17	; 0x11
     602:	a2 88       	ldd	r10, Z+18	; 0x12
     604:	b3 88       	ldd	r11, Z+19	; 0x13
     606:	a3 01       	movw	r20, r6
     608:	92 01       	movw	r18, r4
     60a:	e2 d6       	rcall	.+3524   	; 0x13d0 <__subsf3>
     60c:	a5 01       	movw	r20, r10
     60e:	94 01       	movw	r18, r8
     610:	df d6       	rcall	.+3518   	; 0x13d0 <__subsf3>
     612:	2d ec       	ldi	r18, 0xCD	; 205
     614:	3c ec       	ldi	r19, 0xCC	; 204
     616:	4c ec       	ldi	r20, 0xCC	; 204
     618:	5c e3       	ldi	r21, 0x3C	; 60
     61a:	db d6       	rcall	.+3510   	; 0x13d2 <__addsf3>
     61c:	a7 01       	movw	r20, r14
     61e:	96 01       	movw	r18, r12
     620:	19 d9       	rcall	.-3534   	; 0xfffff854 <__eeprom_end+0xff7ef854>
     622:	a9 a1       	ldd	r26, Y+33	; 0x21
     624:	ba a1       	ldd	r27, Y+34	; 0x22
     626:	18 96       	adiw	r26, 0x08	; 8
     628:	2d 91       	ld	r18, X+
     62a:	3d 91       	ld	r19, X+
     62c:	4d 91       	ld	r20, X+
     62e:	5c 91       	ld	r21, X
     630:	1b 97       	sbiw	r26, 0x0b	; 11
     632:	cf d6       	rcall	.+3486   	; 0x13d2 <__addsf3>
     634:	6d 83       	std	Y+5, r22	; 0x05
     636:	7e 83       	std	Y+6, r23	; 0x06
     638:	8f 83       	std	Y+7, r24	; 0x07
     63a:	98 87       	std	Y+8, r25	; 0x08
	axis->P[0][1] -= dt * axis->P[1][1];
     63c:	29 81       	ldd	r18, Y+1	; 0x01
     63e:	3a 81       	ldd	r19, Y+2	; 0x02
     640:	4b 81       	ldd	r20, Y+3	; 0x03
     642:	5c 81       	ldd	r21, Y+4	; 0x04
     644:	c3 01       	movw	r24, r6
     646:	b2 01       	movw	r22, r4
     648:	c3 d6       	rcall	.+3462   	; 0x13d0 <__subsf3>
     64a:	2b 01       	movw	r4, r22
     64c:	3c 01       	movw	r6, r24
	axis->P[1][0] -= dt * axis->P[1][1];
     64e:	29 81       	ldd	r18, Y+1	; 0x01
     650:	3a 81       	ldd	r19, Y+2	; 0x02
     652:	4b 81       	ldd	r20, Y+3	; 0x03
     654:	5c 81       	ldd	r21, Y+4	; 0x04
     656:	c5 01       	movw	r24, r10
     658:	b4 01       	movw	r22, r8
     65a:	ba d6       	rcall	.+3444   	; 0x13d0 <__subsf3>
     65c:	6d 8f       	std	Y+29, r22	; 0x1d
     65e:	7e 8f       	std	Y+30, r23	; 0x1e
     660:	8f 8f       	std	Y+31, r24	; 0x1f
     662:	98 a3       	std	Y+32, r25	; 0x20
	axis->P[1][1] += KALMAN_GYRO_Q * dt;

	// Третій крок: вирахування калманівського коефіцієнту
	float S = axis->P[0][0] + KALMAN_R;
     664:	2c eb       	ldi	r18, 0xBC	; 188
     666:	34 e7       	ldi	r19, 0x74	; 116
     668:	43 e9       	ldi	r20, 0x93	; 147
     66a:	5c e3       	ldi	r21, 0x3C	; 60
     66c:	6d 81       	ldd	r22, Y+5	; 0x05
     66e:	7e 81       	ldd	r23, Y+6	; 0x06
     670:	8f 81       	ldd	r24, Y+7	; 0x07
     672:	98 85       	ldd	r25, Y+8	; 0x08
     674:	ae d6       	rcall	.+3420   	; 0x13d2 <__addsf3>
     676:	4b 01       	movw	r8, r22
     678:	5c 01       	movw	r10, r24
	float K[2]; // калманівський коефіцієнт
	K[0] = axis->P[0][0] / S;
     67a:	9b 01       	movw	r18, r22
     67c:	ac 01       	movw	r20, r24
     67e:	6d 81       	ldd	r22, Y+5	; 0x05
     680:	7e 81       	ldd	r23, Y+6	; 0x06
     682:	8f 81       	ldd	r24, Y+7	; 0x07
     684:	98 85       	ldd	r25, Y+8	; 0x08
     686:	6f d7       	rcall	.+3806   	; 0x1566 <__divsf3>
     688:	69 83       	std	Y+1, r22	; 0x01
     68a:	7a 83       	std	Y+2, r23	; 0x02
     68c:	8b 83       	std	Y+3, r24	; 0x03
     68e:	9c 83       	std	Y+4, r25	; 0x04
	K[1] = axis->P[1][0] / S;
     690:	a5 01       	movw	r20, r10
     692:	94 01       	movw	r18, r8
     694:	6d 8d       	ldd	r22, Y+29	; 0x1d
     696:	7e 8d       	ldd	r23, Y+30	; 0x1e
     698:	8f 8d       	ldd	r24, Y+31	; 0x1f
     69a:	98 a1       	ldd	r25, Y+32	; 0x20
     69c:	64 d7       	rcall	.+3784   	; 0x1566 <__divsf3>
     69e:	6d 87       	std	Y+13, r22	; 0x0d
     6a0:	7e 87       	std	Y+14, r23	; 0x0e
     6a2:	8f 87       	std	Y+15, r24	; 0x0f
     6a4:	98 8b       	std	Y+16, r25	; 0x10

	// Четвертий крок: оновлення оцінки на основі вимірів
	float y = measured_angle - axis->angle; // помилка виміру
     6a6:	29 8d       	ldd	r18, Y+25	; 0x19
     6a8:	3a 8d       	ldd	r19, Y+26	; 0x1a
     6aa:	4b 8d       	ldd	r20, Y+27	; 0x1b
     6ac:	5c 8d       	ldd	r21, Y+28	; 0x1c
     6ae:	69 85       	ldd	r22, Y+9	; 0x09
     6b0:	7a 85       	ldd	r23, Y+10	; 0x0a
     6b2:	8b 85       	ldd	r24, Y+11	; 0x0b
     6b4:	9c 85       	ldd	r25, Y+12	; 0x0c
     6b6:	8c d6       	rcall	.+3352   	; 0x13d0 <__subsf3>
     6b8:	69 87       	std	Y+9, r22	; 0x09
     6ba:	7a 87       	std	Y+10, r23	; 0x0a
     6bc:	8b 87       	std	Y+11, r24	; 0x0b
     6be:	9c 87       	std	Y+12, r25	; 0x0c
	axis->angle += K[0] * y;
     6c0:	9b 01       	movw	r18, r22
     6c2:	ac 01       	movw	r20, r24
     6c4:	69 81       	ldd	r22, Y+1	; 0x01
     6c6:	7a 81       	ldd	r23, Y+2	; 0x02
     6c8:	8b 81       	ldd	r24, Y+3	; 0x03
     6ca:	9c 81       	ldd	r25, Y+4	; 0x04
     6cc:	c3 d8       	rcall	.-3706   	; 0xfffff854 <__eeprom_end+0xff7ef854>
     6ce:	29 8d       	ldd	r18, Y+25	; 0x19
     6d0:	3a 8d       	ldd	r19, Y+26	; 0x1a
     6d2:	4b 8d       	ldd	r20, Y+27	; 0x1b
     6d4:	5c 8d       	ldd	r21, Y+28	; 0x1c
     6d6:	7d d6       	rcall	.+3322   	; 0x13d2 <__addsf3>
     6d8:	4b 01       	movw	r8, r22
     6da:	5c 01       	movw	r10, r24
     6dc:	e9 a1       	ldd	r30, Y+33	; 0x21
     6de:	fa a1       	ldd	r31, Y+34	; 0x22
     6e0:	60 83       	st	Z, r22
     6e2:	71 83       	std	Z+1, r23	; 0x01
     6e4:	82 83       	std	Z+2, r24	; 0x02
     6e6:	93 83       	std	Z+3, r25	; 0x03
	axis->bias += K[1] * y;
     6e8:	29 85       	ldd	r18, Y+9	; 0x09
     6ea:	3a 85       	ldd	r19, Y+10	; 0x0a
     6ec:	4b 85       	ldd	r20, Y+11	; 0x0b
     6ee:	5c 85       	ldd	r21, Y+12	; 0x0c
     6f0:	6d 85       	ldd	r22, Y+13	; 0x0d
     6f2:	7e 85       	ldd	r23, Y+14	; 0x0e
     6f4:	8f 85       	ldd	r24, Y+15	; 0x0f
     6f6:	98 89       	ldd	r25, Y+16	; 0x10
     6f8:	ad d8       	rcall	.-3750   	; 0xfffff854 <__eeprom_end+0xff7ef854>
     6fa:	29 89       	ldd	r18, Y+17	; 0x11
     6fc:	3a 89       	ldd	r19, Y+18	; 0x12
     6fe:	4b 89       	ldd	r20, Y+19	; 0x13
     700:	5c 89       	ldd	r21, Y+20	; 0x14
     702:	67 d6       	rcall	.+3278   	; 0x13d2 <__addsf3>
     704:	a9 a1       	ldd	r26, Y+33	; 0x21
     706:	ba a1       	ldd	r27, Y+34	; 0x22
     708:	14 96       	adiw	r26, 0x04	; 4
     70a:	6d 93       	st	X+, r22
     70c:	7d 93       	st	X+, r23
     70e:	8d 93       	st	X+, r24
     710:	9c 93       	st	X, r25
     712:	17 97       	sbiw	r26, 0x07	; 7

	// П'ятий крок: оновлення коваріаційної матриці на основі вимірів
	float P00_temp = axis->P[0][0];
	float P01_temp = axis->P[0][1];

	axis->P[0][0] -= K[0] * P00_temp;
     714:	29 81       	ldd	r18, Y+1	; 0x01
     716:	3a 81       	ldd	r19, Y+2	; 0x02
     718:	4b 81       	ldd	r20, Y+3	; 0x03
     71a:	5c 81       	ldd	r21, Y+4	; 0x04
     71c:	6d 81       	ldd	r22, Y+5	; 0x05
     71e:	7e 81       	ldd	r23, Y+6	; 0x06
     720:	8f 81       	ldd	r24, Y+7	; 0x07
     722:	98 85       	ldd	r25, Y+8	; 0x08
     724:	97 d8       	rcall	.-3794   	; 0xfffff854 <__eeprom_end+0xff7ef854>
     726:	9b 01       	movw	r18, r22
     728:	ac 01       	movw	r20, r24
     72a:	6d 81       	ldd	r22, Y+5	; 0x05
     72c:	7e 81       	ldd	r23, Y+6	; 0x06
     72e:	8f 81       	ldd	r24, Y+7	; 0x07
     730:	98 85       	ldd	r25, Y+8	; 0x08
     732:	4e d6       	rcall	.+3228   	; 0x13d0 <__subsf3>
     734:	e9 a1       	ldd	r30, Y+33	; 0x21
     736:	fa a1       	ldd	r31, Y+34	; 0x22
     738:	60 87       	std	Z+8, r22	; 0x08
     73a:	71 87       	std	Z+9, r23	; 0x09
     73c:	82 87       	std	Z+10, r24	; 0x0a
     73e:	93 87       	std	Z+11, r25	; 0x0b
	axis->P[0][1] -= K[0] * P01_temp;
     740:	29 81       	ldd	r18, Y+1	; 0x01
     742:	3a 81       	ldd	r19, Y+2	; 0x02
     744:	4b 81       	ldd	r20, Y+3	; 0x03
     746:	5c 81       	ldd	r21, Y+4	; 0x04
     748:	c3 01       	movw	r24, r6
     74a:	b2 01       	movw	r22, r4
     74c:	83 d8       	rcall	.-3834   	; 0xfffff854 <__eeprom_end+0xff7ef854>
     74e:	9b 01       	movw	r18, r22
     750:	ac 01       	movw	r20, r24
     752:	c3 01       	movw	r24, r6
     754:	b2 01       	movw	r22, r4
     756:	3c d6       	rcall	.+3192   	; 0x13d0 <__subsf3>
     758:	a9 a1       	ldd	r26, Y+33	; 0x21
     75a:	ba a1       	ldd	r27, Y+34	; 0x22
     75c:	1c 96       	adiw	r26, 0x0c	; 12
     75e:	6d 93       	st	X+, r22
     760:	7d 93       	st	X+, r23
     762:	8d 93       	st	X+, r24
     764:	9c 93       	st	X, r25
     766:	1f 97       	sbiw	r26, 0x0f	; 15
	axis->P[1][0] -= K[1] * P00_temp;
     768:	2d 85       	ldd	r18, Y+13	; 0x0d
     76a:	3e 85       	ldd	r19, Y+14	; 0x0e
     76c:	4f 85       	ldd	r20, Y+15	; 0x0f
     76e:	58 89       	ldd	r21, Y+16	; 0x10
     770:	6d 81       	ldd	r22, Y+5	; 0x05
     772:	7e 81       	ldd	r23, Y+6	; 0x06
     774:	8f 81       	ldd	r24, Y+7	; 0x07
     776:	98 85       	ldd	r25, Y+8	; 0x08
     778:	6d d8       	rcall	.-3878   	; 0xfffff854 <__eeprom_end+0xff7ef854>
     77a:	9b 01       	movw	r18, r22
     77c:	ac 01       	movw	r20, r24
     77e:	6d 8d       	ldd	r22, Y+29	; 0x1d
     780:	7e 8d       	ldd	r23, Y+30	; 0x1e
     782:	8f 8d       	ldd	r24, Y+31	; 0x1f
     784:	98 a1       	ldd	r25, Y+32	; 0x20
     786:	24 d6       	rcall	.+3144   	; 0x13d0 <__subsf3>
     788:	e9 a1       	ldd	r30, Y+33	; 0x21
     78a:	fa a1       	ldd	r31, Y+34	; 0x22
     78c:	60 8b       	std	Z+16, r22	; 0x10
     78e:	71 8b       	std	Z+17, r23	; 0x11
     790:	82 8b       	std	Z+18, r24	; 0x12
     792:	93 8b       	std	Z+19, r25	; 0x13
	axis->P[1][1] -= K[1] * P01_temp;
     794:	2a e0       	ldi	r18, 0x0A	; 10
     796:	37 ed       	ldi	r19, 0xD7	; 215
     798:	43 ea       	ldi	r20, 0xA3	; 163
     79a:	5c e3       	ldi	r21, 0x3C	; 60
     79c:	c7 01       	movw	r24, r14
     79e:	b6 01       	movw	r22, r12
     7a0:	59 d8       	rcall	.-3918   	; 0xfffff854 <__eeprom_end+0xff7ef854>
     7a2:	2d 89       	ldd	r18, Y+21	; 0x15
     7a4:	3e 89       	ldd	r19, Y+22	; 0x16
     7a6:	4f 89       	ldd	r20, Y+23	; 0x17
     7a8:	58 8d       	ldd	r21, Y+24	; 0x18
     7aa:	13 d6       	rcall	.+3110   	; 0x13d2 <__addsf3>
     7ac:	6b 01       	movw	r12, r22
     7ae:	7c 01       	movw	r14, r24
     7b0:	2d 85       	ldd	r18, Y+13	; 0x0d
     7b2:	3e 85       	ldd	r19, Y+14	; 0x0e
     7b4:	4f 85       	ldd	r20, Y+15	; 0x0f
     7b6:	58 89       	ldd	r21, Y+16	; 0x10
     7b8:	c3 01       	movw	r24, r6
     7ba:	b2 01       	movw	r22, r4
     7bc:	4b d8       	rcall	.-3946   	; 0xfffff854 <__eeprom_end+0xff7ef854>
     7be:	9b 01       	movw	r18, r22
     7c0:	ac 01       	movw	r20, r24
     7c2:	c7 01       	movw	r24, r14
     7c4:	b6 01       	movw	r22, r12
     7c6:	04 d6       	rcall	.+3080   	; 0x13d0 <__subsf3>
     7c8:	a9 a1       	ldd	r26, Y+33	; 0x21
     7ca:	ba a1       	ldd	r27, Y+34	; 0x22
     7cc:	54 96       	adiw	r26, 0x14	; 20
     7ce:	6d 93       	st	X+, r22
     7d0:	7d 93       	st	X+, r23
     7d2:	8d 93       	st	X+, r24
     7d4:	9c 93       	st	X, r25
     7d6:	57 97       	sbiw	r26, 0x17	; 23

	return axis->angle;
}
     7d8:	c5 01       	movw	r24, r10
     7da:	b4 01       	movw	r22, r8
     7dc:	a2 96       	adiw	r28, 0x22	; 34
     7de:	0f b6       	in	r0, 0x3f	; 63
     7e0:	f8 94       	cli
     7e2:	de bf       	out	0x3e, r29	; 62
     7e4:	0f be       	out	0x3f, r0	; 63
     7e6:	cd bf       	out	0x3d, r28	; 61
     7e8:	df 91       	pop	r29
     7ea:	cf 91       	pop	r28
     7ec:	1f 91       	pop	r17
     7ee:	0f 91       	pop	r16
     7f0:	ff 90       	pop	r15
     7f2:	ef 90       	pop	r14
     7f4:	df 90       	pop	r13
     7f6:	cf 90       	pop	r12
     7f8:	bf 90       	pop	r11
     7fa:	af 90       	pop	r10
     7fc:	9f 90       	pop	r9
     7fe:	8f 90       	pop	r8
     800:	7f 90       	pop	r7
     802:	6f 90       	pop	r6
     804:	5f 90       	pop	r5
     806:	4f 90       	pop	r4
     808:	08 95       	ret

0000080a <crc>:

//функкція обчислення СРС
uint8_t crc( uint8_t *code, uint8_t size)
{
	uint8_t j, i, Data, tmp, CRC = 0;
	for (j = 0; j < size; j++)
     80a:	66 23       	and	r22, r22
     80c:	b9 f0       	breq	.+46     	; 0x83c <crc+0x32>
     80e:	fc 01       	movw	r30, r24
     810:	61 50       	subi	r22, 0x01	; 1
     812:	70 e0       	ldi	r23, 0x00	; 0
     814:	6f 5f       	subi	r22, 0xFF	; 255
     816:	7f 4f       	sbci	r23, 0xFF	; 255
     818:	68 0f       	add	r22, r24
     81a:	79 1f       	adc	r23, r25
     81c:	80 e0       	ldi	r24, 0x00	; 0
		for (i = 0; i < 8; i++)
		{
			tmp = 1 & (Data ^ CRC);
			CRC >>= 1;
			Data >>= 1;
			if ( 0 != tmp ) CRC ^= 0x8c;
     81e:	4c e8       	ldi	r20, 0x8C	; 140
uint8_t crc( uint8_t *code, uint8_t size)
{
	uint8_t j, i, Data, tmp, CRC = 0;
	for (j = 0; j < size; j++)
	{
		Data = code[j];
     820:	21 91       	ld	r18, Z+
     822:	98 e0       	ldi	r25, 0x08	; 8
		for (i = 0; i < 8; i++)
		{
			tmp = 1 & (Data ^ CRC);
     824:	32 2f       	mov	r19, r18
     826:	38 27       	eor	r19, r24
			CRC >>= 1;
     828:	86 95       	lsr	r24
			Data >>= 1;
     82a:	26 95       	lsr	r18
			if ( 0 != tmp ) CRC ^= 0x8c;
     82c:	30 fd       	sbrc	r19, 0
     82e:	84 27       	eor	r24, r20
     830:	91 50       	subi	r25, 0x01	; 1
{
	uint8_t j, i, Data, tmp, CRC = 0;
	for (j = 0; j < size; j++)
	{
		Data = code[j];
		for (i = 0; i < 8; i++)
     832:	c1 f7       	brne	.-16     	; 0x824 <crc+0x1a>

//функкція обчислення СРС
uint8_t crc( uint8_t *code, uint8_t size)
{
	uint8_t j, i, Data, tmp, CRC = 0;
	for (j = 0; j < size; j++)
     834:	e6 17       	cp	r30, r22
     836:	f7 07       	cpc	r31, r23
     838:	99 f7       	brne	.-26     	; 0x820 <crc+0x16>
     83a:	08 95       	ret
}

//функкція обчислення СРС
uint8_t crc( uint8_t *code, uint8_t size)
{
	uint8_t j, i, Data, tmp, CRC = 0;
     83c:	80 e0       	ldi	r24, 0x00	; 0
			Data >>= 1;
			if ( 0 != tmp ) CRC ^= 0x8c;
		}
	}
	return CRC;
}
     83e:	08 95       	ret

00000840 <UART_data_procesing>:
	UART_Transmit_String("angle_y:, filter_y \r\n");
	UART_PrintLn("%d,%d", (int16_t)Ploter_angle, (int16_t)Y_angle);
}

void UART_data_procesing(void)
{
     840:	0f 93       	push	r16
     842:	1f 93       	push	r17
     844:	cf 93       	push	r28
     846:	df 93       	push	r29
	uint8_t Old_Data_Addres = 0;
	
	if (Old_Data_Flag == 1)
     848:	80 91 65 00 	lds	r24, 0x0065	; 0x800065 <Old_Data_Flag>
     84c:	88 23       	and	r24, r24
     84e:	09 f4       	brne	.+2      	; 0x852 <UART_data_procesing+0x12>
     850:	47 c0       	rjmp	.+142    	; 0x8e0 <UART_data_procesing+0xa0>
	{
		if (Sensor_Addres == 1) {
     852:	80 91 61 00 	lds	r24, 0x0061	; 0x800061 <Sensor_Addres>
     856:	81 30       	cpi	r24, 0x01	; 1
     858:	19 f4       	brne	.+6      	; 0x860 <UART_data_procesing+0x20>
			Old_Data_Addres = Sensor_Addres;
     85a:	c0 91 61 00 	lds	r28, 0x0061	; 0x800061 <Sensor_Addres>
     85e:	09 c0       	rjmp	.+18     	; 0x872 <UART_data_procesing+0x32>
		} else if (Sensor_Addres > 1) {
     860:	80 91 61 00 	lds	r24, 0x0061	; 0x800061 <Sensor_Addres>
     864:	82 30       	cpi	r24, 0x02	; 2
     866:	20 f0       	brcs	.+8      	; 0x870 <UART_data_procesing+0x30>
			Old_Data_Addres = Sensor_Addres + 1;
     868:	c0 91 61 00 	lds	r28, 0x0061	; 0x800061 <Sensor_Addres>
     86c:	cf 5f       	subi	r28, 0xFF	; 255
     86e:	01 c0       	rjmp	.+2      	; 0x872 <UART_data_procesing+0x32>
	UART_PrintLn("%d,%d", (int16_t)Ploter_angle, (int16_t)Y_angle);
}

void UART_data_procesing(void)
{
	uint8_t Old_Data_Addres = 0;
     870:	c0 e0       	ldi	r28, 0x00	; 0
			Old_Data_Addres = Sensor_Addres;
		} else if (Sensor_Addres > 1) {
			Old_Data_Addres = Sensor_Addres + 1;
		}
		
		if ( (rx_buffer[0] == Old_Data_Addres) && (crc(rx_buffer, OLD_DATA_PACKAGE_SIZE-1) == rx_buffer[4]))
     872:	80 91 13 01 	lds	r24, 0x0113	; 0x800113 <rx_buffer>
     876:	c8 13       	cpse	r28, r24
     878:	18 c1       	rjmp	.+560    	; 0xaaa <UART_data_procesing+0x26a>
     87a:	64 e0       	ldi	r22, 0x04	; 4
     87c:	83 e1       	ldi	r24, 0x13	; 19
     87e:	91 e0       	ldi	r25, 0x01	; 1
     880:	c4 df       	rcall	.-120    	; 0x80a <crc>
     882:	90 91 17 01 	lds	r25, 0x0117	; 0x800117 <rx_buffer+0x4>
     886:	89 13       	cpse	r24, r25
     888:	10 c1       	rjmp	.+544    	; 0xaaa <UART_data_procesing+0x26a>
		{
			LED = !LED;
     88a:	82 b3       	in	r24, 0x12	; 18
     88c:	83 fb       	bst	r24, 3
     88e:	88 27       	eor	r24, r24
     890:	80 f9       	bld	r24, 0
     892:	d1 e0       	ldi	r29, 0x01	; 1
     894:	8d 27       	eor	r24, r29
     896:	80 fd       	sbrc	r24, 0
     898:	93 9a       	sbi	0x12, 3	; 18
     89a:	80 ff       	sbrs	r24, 0
     89c:	93 98       	cbi	0x12, 3	; 18
			memset(rx_buffer, 0, DATA_PACKAGE_SIZE);
     89e:	87 e0       	ldi	r24, 0x07	; 7
     8a0:	e3 e1       	ldi	r30, 0x13	; 19
     8a2:	f1 e0       	ldi	r31, 0x01	; 1
     8a4:	df 01       	movw	r26, r30
     8a6:	98 2f       	mov	r25, r24
     8a8:	1d 92       	st	X+, r1
     8aa:	9a 95       	dec	r25
     8ac:	e9 f7       	brne	.-6      	; 0x8a8 <UART_data_procesing+0x68>
			memset(tx_buffer, 0, DATA_PACKAGE_SIZE);
     8ae:	0a e1       	ldi	r16, 0x1A	; 26
     8b0:	11 e0       	ldi	r17, 0x01	; 1
     8b2:	d8 01       	movw	r26, r16
     8b4:	1d 92       	st	X+, r1
     8b6:	8a 95       	dec	r24
     8b8:	e9 f7       	brne	.-6      	; 0x8b4 <UART_data_procesing+0x74>
			tx_buffer[0] = Old_Data_Addres;
     8ba:	f8 01       	movw	r30, r16
     8bc:	c0 83       	st	Z, r28

			tx_buffer[1] = (Angle_OLD >> 8) & 0xFF;//MSB
     8be:	80 91 2a 01 	lds	r24, 0x012A	; 0x80012a <Angle_OLD>
     8c2:	90 91 2b 01 	lds	r25, 0x012B	; 0x80012b <Angle_OLD+0x1>
     8c6:	91 83       	std	Z+1, r25	; 0x01
			tx_buffer[2] = Angle_OLD & 0xFF;//LSB
     8c8:	82 83       	std	Z+2, r24	; 0x02
				
			tx_buffer[3] = Old_Data_Addres;
     8ca:	c3 83       	std	Z+3, r28	; 0x03
			tx_buffer[4] = crc(tx_buffer, OLD_DATA_PACKAGE_SIZE-1);           //обрахувати контрольну суму і вислати останнім байтом
     8cc:	64 e0       	ldi	r22, 0x04	; 4
     8ce:	c8 01       	movw	r24, r16
     8d0:	9c df       	rcall	.-200    	; 0x80a <crc>
     8d2:	d8 01       	movw	r26, r16
     8d4:	14 96       	adiw	r26, 0x04	; 4
     8d6:	8c 93       	st	X, r24
			
			UART_TX_Pre_Counter = 1;
     8d8:	d0 93 63 00 	sts	0x0063, r29	; 0x800063 <UART_TX_Pre_Counter>
			TX_ON;
     8dc:	92 9a       	sbi	0x12, 2	; 18
     8de:	e5 c0       	rjmp	.+458    	; 0xaaa <UART_data_procesing+0x26a>
		}
		return;
	}

	if ( (rx_buffer[0] == Sensor_Addres) && (crc(rx_buffer, DATA_PACKAGE_SIZE-1) == rx_buffer[6]))
     8e0:	90 91 13 01 	lds	r25, 0x0113	; 0x800113 <rx_buffer>
     8e4:	80 91 61 00 	lds	r24, 0x0061	; 0x800061 <Sensor_Addres>
     8e8:	98 13       	cpse	r25, r24
     8ea:	df c0       	rjmp	.+446    	; 0xaaa <UART_data_procesing+0x26a>
     8ec:	66 e0       	ldi	r22, 0x06	; 6
     8ee:	83 e1       	ldi	r24, 0x13	; 19
     8f0:	91 e0       	ldi	r25, 0x01	; 1
     8f2:	8b df       	rcall	.-234    	; 0x80a <crc>
     8f4:	90 91 19 01 	lds	r25, 0x0119	; 0x800119 <rx_buffer+0x6>
     8f8:	89 13       	cpse	r24, r25
     8fa:	d7 c0       	rjmp	.+430    	; 0xaaa <UART_data_procesing+0x26a>
	{
		LED = !LED;
     8fc:	82 b3       	in	r24, 0x12	; 18
     8fe:	83 fb       	bst	r24, 3
     900:	99 27       	eor	r25, r25
     902:	90 f9       	bld	r25, 0
     904:	81 e0       	ldi	r24, 0x01	; 1
     906:	89 27       	eor	r24, r25
     908:	80 fd       	sbrc	r24, 0
     90a:	93 9a       	sbi	0x12, 3	; 18
     90c:	80 ff       	sbrs	r24, 0
     90e:	93 98       	cbi	0x12, 3	; 18
		Angle_Type = rx_buffer[2];
     910:	e3 e1       	ldi	r30, 0x13	; 19
     912:	f1 e0       	ldi	r31, 0x01	; 1
     914:	82 81       	ldd	r24, Z+2	; 0x02
     916:	80 93 62 00 	sts	0x0062, r24	; 0x800062 <Angle_Type>
			
		if (rx_buffer[3] == ADDRESS_CHANGE_KEY)
     91a:	83 81       	ldd	r24, Z+3	; 0x03
     91c:	8f 36       	cpi	r24, 0x6F	; 111
     91e:	59 f5       	brne	.+86     	; 0x976 <UART_data_procesing+0x136>
		{
			if (Address_Change_Counter < 10)
     920:	80 91 67 00 	lds	r24, 0x0067	; 0x800067 <Address_Change_Counter>
     924:	8a 30       	cpi	r24, 0x0A	; 10
     926:	30 f4       	brcc	.+12     	; 0x934 <UART_data_procesing+0xf4>
			{
				Address_Change_Counter ++;
     928:	80 91 67 00 	lds	r24, 0x0067	; 0x800067 <Address_Change_Counter>
     92c:	8f 5f       	subi	r24, 0xFF	; 255
     92e:	80 93 67 00 	sts	0x0067, r24	; 0x800067 <Address_Change_Counter>
     932:	23 c0       	rjmp	.+70     	; 0x97a <UART_data_procesing+0x13a>
			}else if (Address_Change_Counter == 10){
     934:	80 91 67 00 	lds	r24, 0x0067	; 0x800067 <Address_Change_Counter>
     938:	8a 30       	cpi	r24, 0x0A	; 10
     93a:	f9 f4       	brne	.+62     	; 0x97a <UART_data_procesing+0x13a>
				if (rx_buffer[4] <= ANGLE_SENS_ADDRESS_4 && rx_buffer[4] != 0)
     93c:	80 91 17 01 	lds	r24, 0x0117	; 0x800117 <rx_buffer+0x4>
     940:	85 30       	cpi	r24, 0x05	; 5
     942:	70 f4       	brcc	.+28     	; 0x960 <UART_data_procesing+0x120>
     944:	80 91 17 01 	lds	r24, 0x0117	; 0x800117 <rx_buffer+0x4>
     948:	88 23       	and	r24, r24
     94a:	51 f0       	breq	.+20     	; 0x960 <UART_data_procesing+0x120>
				{
					Sensor_Addres = rx_buffer[4];
     94c:	80 91 17 01 	lds	r24, 0x0117	; 0x800117 <rx_buffer+0x4>
     950:	80 93 61 00 	sts	0x0061, r24	; 0x800061 <Sensor_Addres>
					eeprom_write_byte((uint8_t*)EEPROM_SENS_ADDR, Sensor_Addres);
     954:	60 91 61 00 	lds	r22, 0x0061	; 0x800061 <Sensor_Addres>
     958:	80 e0       	ldi	r24, 0x00	; 0
     95a:	90 e0       	ldi	r25, 0x00	; 0
     95c:	e9 d7       	rcall	.+4050   	; 0x1930 <eeprom_write_byte>
     95e:	08 c0       	rjmp	.+16     	; 0x970 <UART_data_procesing+0x130>
				}
				else
				{
					Sensor_Addres = ANGLE_SENS_ADDRESS_1;
     960:	81 e0       	ldi	r24, 0x01	; 1
     962:	80 93 61 00 	sts	0x0061, r24	; 0x800061 <Sensor_Addres>
					eeprom_write_byte((uint8_t*)EEPROM_SENS_ADDR, Sensor_Addres);
     966:	60 91 61 00 	lds	r22, 0x0061	; 0x800061 <Sensor_Addres>
     96a:	80 e0       	ldi	r24, 0x00	; 0
     96c:	90 e0       	ldi	r25, 0x00	; 0
     96e:	e0 d7       	rcall	.+4032   	; 0x1930 <eeprom_write_byte>
				}
				Address_Change_Counter = 0;
     970:	10 92 67 00 	sts	0x0067, r1	; 0x800067 <Address_Change_Counter>
     974:	02 c0       	rjmp	.+4      	; 0x97a <UART_data_procesing+0x13a>
			}
		}else{
			Address_Change_Counter = 0;
     976:	10 92 67 00 	sts	0x0067, r1	; 0x800067 <Address_Change_Counter>
		}
			
		if (rx_buffer[3] == POSITION_CHANGE_KEY)
     97a:	80 91 16 01 	lds	r24, 0x0116	; 0x800116 <rx_buffer+0x3>
     97e:	80 37       	cpi	r24, 0x70	; 112
     980:	19 f5       	brne	.+70     	; 0x9c8 <UART_data_procesing+0x188>
		{
			if (Position_Change_Counter < 10)
     982:	80 91 66 00 	lds	r24, 0x0066	; 0x800066 <Position_Change_Counter>
     986:	8a 30       	cpi	r24, 0x0A	; 10
     988:	30 f4       	brcc	.+12     	; 0x996 <UART_data_procesing+0x156>
			{
				Position_Change_Counter ++;
     98a:	80 91 66 00 	lds	r24, 0x0066	; 0x800066 <Position_Change_Counter>
     98e:	8f 5f       	subi	r24, 0xFF	; 255
     990:	80 93 66 00 	sts	0x0066, r24	; 0x800066 <Position_Change_Counter>
     994:	1b c0       	rjmp	.+54     	; 0x9cc <UART_data_procesing+0x18c>
			} else if (Position_Change_Counter == 10){
     996:	80 91 66 00 	lds	r24, 0x0066	; 0x800066 <Position_Change_Counter>
     99a:	8a 30       	cpi	r24, 0x0A	; 10
     99c:	b9 f4       	brne	.+46     	; 0x9cc <UART_data_procesing+0x18c>
				if (Sensor_Position == 0){
     99e:	80 91 60 00 	lds	r24, 0x0060	; 0x800060 <__DATA_REGION_ORIGIN__>
     9a2:	81 11       	cpse	r24, r1
     9a4:	08 c0       	rjmp	.+16     	; 0x9b6 <UART_data_procesing+0x176>
					Sensor_Position = 0xFF;
     9a6:	8f ef       	ldi	r24, 0xFF	; 255
     9a8:	80 93 60 00 	sts	0x0060, r24	; 0x800060 <__DATA_REGION_ORIGIN__>
					eeprom_write_byte((uint8_t*)EEPROM_POSITION, 0xFF);
     9ac:	6f ef       	ldi	r22, 0xFF	; 255
     9ae:	81 e0       	ldi	r24, 0x01	; 1
     9b0:	90 e0       	ldi	r25, 0x00	; 0
     9b2:	be d7       	rcall	.+3964   	; 0x1930 <eeprom_write_byte>
     9b4:	06 c0       	rjmp	.+12     	; 0x9c2 <UART_data_procesing+0x182>
				} else {
					Sensor_Position = 0;
     9b6:	10 92 60 00 	sts	0x0060, r1	; 0x800060 <__DATA_REGION_ORIGIN__>
					eeprom_write_byte((uint8_t*)EEPROM_POSITION, 0);
     9ba:	60 e0       	ldi	r22, 0x00	; 0
     9bc:	81 e0       	ldi	r24, 0x01	; 1
     9be:	90 e0       	ldi	r25, 0x00	; 0
     9c0:	b7 d7       	rcall	.+3950   	; 0x1930 <eeprom_write_byte>
				}
				Position_Change_Counter = 0;
     9c2:	10 92 66 00 	sts	0x0066, r1	; 0x800066 <Position_Change_Counter>
     9c6:	02 c0       	rjmp	.+4      	; 0x9cc <UART_data_procesing+0x18c>
			}
		}else{
			Position_Change_Counter = 0;
     9c8:	10 92 66 00 	sts	0x0066, r1	; 0x800066 <Position_Change_Counter>
		}
		memset(rx_buffer, 0, DATA_PACKAGE_SIZE);
     9cc:	87 e0       	ldi	r24, 0x07	; 7
     9ce:	e3 e1       	ldi	r30, 0x13	; 19
     9d0:	f1 e0       	ldi	r31, 0x01	; 1
     9d2:	df 01       	movw	r26, r30
     9d4:	98 2f       	mov	r25, r24
     9d6:	1d 92       	st	X+, r1
     9d8:	9a 95       	dec	r25
     9da:	e9 f7       	brne	.-6      	; 0x9d6 <UART_data_procesing+0x196>
			
		memset(tx_buffer, 0, DATA_PACKAGE_SIZE);
     9dc:	ea e1       	ldi	r30, 0x1A	; 26
     9de:	f1 e0       	ldi	r31, 0x01	; 1
     9e0:	df 01       	movw	r26, r30
     9e2:	1d 92       	st	X+, r1
     9e4:	8a 95       	dec	r24
     9e6:	e9 f7       	brne	.-6      	; 0x9e2 <UART_data_procesing+0x1a2>
		tx_buffer[0] = Sensor_Addres;
     9e8:	80 91 61 00 	lds	r24, 0x0061	; 0x800061 <Sensor_Addres>
     9ec:	80 83       	st	Z, r24
		if (Angle_Type == RB_DATA_TYPE || Angle_Type == MODULAR_RB_DATA_TYPE)
     9ee:	80 91 62 00 	lds	r24, 0x0062	; 0x800062 <Angle_Type>
     9f2:	8a 3f       	cpi	r24, 0xFA	; 250
     9f4:	21 f0       	breq	.+8      	; 0x9fe <UART_data_procesing+0x1be>
     9f6:	80 91 62 00 	lds	r24, 0x0062	; 0x800062 <Angle_Type>
     9fa:	8a 3a       	cpi	r24, 0xAA	; 170
     9fc:	69 f4       	brne	.+26     	; 0xa18 <UART_data_procesing+0x1d8>
		{
			float_to_byte(Y_angle, tx_buffer, 1);
     9fe:	60 91 73 00 	lds	r22, 0x0073	; 0x800073 <Y_angle>
     a02:	70 91 74 00 	lds	r23, 0x0074	; 0x800074 <Y_angle+0x1>
     a06:	80 91 75 00 	lds	r24, 0x0075	; 0x800075 <Y_angle+0x2>
     a0a:	90 91 76 00 	lds	r25, 0x0076	; 0x800076 <Y_angle+0x3>
     a0e:	21 e0       	ldi	r18, 0x01	; 1
     a10:	30 e0       	ldi	r19, 0x00	; 0
     a12:	4a e1       	ldi	r20, 0x1A	; 26
     a14:	51 e0       	ldi	r21, 0x01	; 1
     a16:	81 dd       	rcall	.-1278   	; 0x51a <float_to_byte>
		}
		if (Angle_Type == BOLLARD_DATA_TYPE)
     a18:	80 91 62 00 	lds	r24, 0x0062	; 0x800062 <Angle_Type>
     a1c:	8d 3b       	cpi	r24, 0xBD	; 189
     a1e:	c1 f5       	brne	.+112    	; 0xa90 <UART_data_procesing+0x250>
		{
			if (abs(MAX_Accel_Value_X) > abs(MAX_Accel_Value_Z))
     a20:	60 91 6d 00 	lds	r22, 0x006D	; 0x80006d <MAX_Accel_Value_X>
     a24:	70 91 6e 00 	lds	r23, 0x006E	; 0x80006e <MAX_Accel_Value_X+0x1>
     a28:	40 91 69 00 	lds	r20, 0x0069	; 0x800069 <MAX_Accel_Value_Z>
     a2c:	50 91 6a 00 	lds	r21, 0x006A	; 0x80006a <MAX_Accel_Value_Z+0x1>
     a30:	26 2f       	mov	r18, r22
     a32:	37 2f       	mov	r19, r23
     a34:	33 23       	and	r19, r19
     a36:	1c f4       	brge	.+6      	; 0xa3e <UART_data_procesing+0x1fe>
     a38:	31 95       	neg	r19
     a3a:	21 95       	neg	r18
     a3c:	31 09       	sbc	r19, r1
     a3e:	84 2f       	mov	r24, r20
     a40:	95 2f       	mov	r25, r21
     a42:	99 23       	and	r25, r25
     a44:	1c f4       	brge	.+6      	; 0xa4c <UART_data_procesing+0x20c>
     a46:	91 95       	neg	r25
     a48:	81 95       	neg	r24
     a4a:	91 09       	sbc	r25, r1
     a4c:	82 17       	cp	r24, r18
     a4e:	93 07       	cpc	r25, r19
     a50:	2c f4       	brge	.+10     	; 0xa5c <UART_data_procesing+0x21c>
			{
				tx_buffer[1] = (MAX_Accel_Value_X >> 8) & 0xFF;//MSB
     a52:	ea e1       	ldi	r30, 0x1A	; 26
     a54:	f1 e0       	ldi	r31, 0x01	; 1
     a56:	71 83       	std	Z+1, r23	; 0x01
				tx_buffer[2] = MAX_Accel_Value_X & 0xFF;//LSB
     a58:	62 83       	std	Z+2, r22	; 0x02
     a5a:	04 c0       	rjmp	.+8      	; 0xa64 <UART_data_procesing+0x224>
			}
			else
			{
				tx_buffer[1] = (MAX_Accel_Value_Z >> 8) & 0xFF;//MSB
     a5c:	ea e1       	ldi	r30, 0x1A	; 26
     a5e:	f1 e0       	ldi	r31, 0x01	; 1
     a60:	51 83       	std	Z+1, r21	; 0x01
				tx_buffer[2] = MAX_Accel_Value_Z & 0xFF;//LSB
     a62:	42 83       	std	Z+2, r20	; 0x02
			}
				
			tx_buffer[3] = (MAX_Accel_Value_Y >> 8) & 0xFF;
     a64:	80 91 6b 00 	lds	r24, 0x006B	; 0x80006b <MAX_Accel_Value_Y>
     a68:	90 91 6c 00 	lds	r25, 0x006C	; 0x80006c <MAX_Accel_Value_Y+0x1>
     a6c:	ea e1       	ldi	r30, 0x1A	; 26
     a6e:	f1 e0       	ldi	r31, 0x01	; 1
     a70:	93 83       	std	Z+3, r25	; 0x03
			tx_buffer[4] = MAX_Accel_Value_Y & 0xFF;
     a72:	84 83       	std	Z+4, r24	; 0x04
				
			MAX_Accel_Value_X = 11;
     a74:	8b e0       	ldi	r24, 0x0B	; 11
     a76:	90 e0       	ldi	r25, 0x00	; 0
     a78:	90 93 6e 00 	sts	0x006E, r25	; 0x80006e <MAX_Accel_Value_X+0x1>
     a7c:	80 93 6d 00 	sts	0x006D, r24	; 0x80006d <MAX_Accel_Value_X>
			MAX_Accel_Value_Y = 11;
     a80:	90 93 6c 00 	sts	0x006C, r25	; 0x80006c <MAX_Accel_Value_Y+0x1>
     a84:	80 93 6b 00 	sts	0x006B, r24	; 0x80006b <MAX_Accel_Value_Y>
			MAX_Accel_Value_Z = 11;
     a88:	90 93 6a 00 	sts	0x006A, r25	; 0x80006a <MAX_Accel_Value_Z+0x1>
     a8c:	80 93 69 00 	sts	0x0069, r24	; 0x800069 <MAX_Accel_Value_Z>
				
		}
		tx_buffer[5] = Sensor_Addres;
     a90:	80 91 61 00 	lds	r24, 0x0061	; 0x800061 <Sensor_Addres>
     a94:	ca e1       	ldi	r28, 0x1A	; 26
     a96:	d1 e0       	ldi	r29, 0x01	; 1
     a98:	8d 83       	std	Y+5, r24	; 0x05
		tx_buffer[6] = crc(tx_buffer, DATA_PACKAGE_SIZE-1);           //обрахувати контрольну суму і вислати останнім байтом
     a9a:	66 e0       	ldi	r22, 0x06	; 6
     a9c:	ce 01       	movw	r24, r28
     a9e:	b5 de       	rcall	.-662    	; 0x80a <crc>
     aa0:	8e 83       	std	Y+6, r24	; 0x06
			
		UART_TX_Pre_Counter = 1;
     aa2:	81 e0       	ldi	r24, 0x01	; 1
     aa4:	80 93 63 00 	sts	0x0063, r24	; 0x800063 <UART_TX_Pre_Counter>
		TX_ON;
     aa8:	92 9a       	sbi	0x12, 2	; 18
	}

}
     aaa:	df 91       	pop	r29
     aac:	cf 91       	pop	r28
     aae:	1f 91       	pop	r17
     ab0:	0f 91       	pop	r16
     ab2:	08 95       	ret

00000ab4 <__vector_3>:
	}
	return CRC;
}
//----------------------------------------------------------------------------------

ISR(TIMER2_COMP_vect) {
     ab4:	1f 92       	push	r1
     ab6:	0f 92       	push	r0
     ab8:	0f b6       	in	r0, 0x3f	; 63
     aba:	0f 92       	push	r0
     abc:	11 24       	eor	r1, r1
     abe:	2f 93       	push	r18
     ac0:	3f 93       	push	r19
     ac2:	4f 93       	push	r20
     ac4:	5f 93       	push	r21
     ac6:	6f 93       	push	r22
     ac8:	7f 93       	push	r23
     aca:	8f 93       	push	r24
     acc:	9f 93       	push	r25
     ace:	af 93       	push	r26
     ad0:	bf 93       	push	r27
     ad2:	ef 93       	push	r30
     ad4:	ff 93       	push	r31
	// Код, який виконується кожну 1 мс
	wdt_reset();
     ad6:	a8 95       	wdr
	if (UART_TX_Pre_Counter)
     ad8:	80 91 63 00 	lds	r24, 0x0063	; 0x800063 <UART_TX_Pre_Counter>
     adc:	88 23       	and	r24, r24
     ade:	89 f0       	breq	.+34     	; 0xb02 <__vector_3+0x4e>
	{
		UART_TX_Pre_Counter = 0;
     ae0:	10 92 63 00 	sts	0x0063, r1	; 0x800063 <UART_TX_Pre_Counter>
		//TX_ON;
		UCSRB |= (1 << TXB8);
     ae4:	50 9a       	sbi	0x0a, 0	; 10
		if (Old_Data_Flag) tx_counter = (OLD_DATA_PACKAGE_SIZE-1);
     ae6:	80 91 65 00 	lds	r24, 0x0065	; 0x800065 <Old_Data_Flag>
     aea:	88 23       	and	r24, r24
     aec:	21 f0       	breq	.+8      	; 0xaf6 <__vector_3+0x42>
     aee:	84 e0       	ldi	r24, 0x04	; 4
     af0:	80 93 12 01 	sts	0x0112, r24	; 0x800112 <tx_counter>
     af4:	03 c0       	rjmp	.+6      	; 0xafc <__vector_3+0x48>
		else tx_counter = (DATA_PACKAGE_SIZE-1);
     af6:	86 e0       	ldi	r24, 0x06	; 6
     af8:	80 93 12 01 	sts	0x0112, r24	; 0x800112 <tx_counter>
		//Передавання пакету данних
		UDR = tx_buffer[0];
     afc:	80 91 1a 01 	lds	r24, 0x011A	; 0x80011a <tx_buffer>
     b00:	8c b9       	out	0x0c, r24	; 12
	}
	
	if (LED_Elive_Counter > 0){ LED_Elive_Counter --; }
     b02:	80 91 68 00 	lds	r24, 0x0068	; 0x800068 <LED_Elive_Counter>
     b06:	88 23       	and	r24, r24
     b08:	29 f0       	breq	.+10     	; 0xb14 <__vector_3+0x60>
     b0a:	80 91 68 00 	lds	r24, 0x0068	; 0x800068 <LED_Elive_Counter>
     b0e:	81 50       	subi	r24, 0x01	; 1
     b10:	80 93 68 00 	sts	0x0068, r24	; 0x800068 <LED_Elive_Counter>
		
	if (UART_RX_Complete_FLAG)
     b14:	80 91 64 00 	lds	r24, 0x0064	; 0x800064 <UART_RX_Complete_FLAG>
     b18:	88 23       	and	r24, r24
     b1a:	39 f0       	breq	.+14     	; 0xb2a <__vector_3+0x76>
	{
		UART_data_procesing();
     b1c:	91 de       	rcall	.-734    	; 0x840 <UART_data_procesing>
		UART_RX_Complete_FLAG = 0;
     b1e:	10 92 64 00 	sts	0x0064, r1	; 0x800064 <UART_RX_Complete_FLAG>
		LED_Elive_Counter = 200;
     b22:	88 ec       	ldi	r24, 0xC8	; 200
     b24:	80 93 68 00 	sts	0x0068, r24	; 0x800068 <LED_Elive_Counter>
     b28:	11 c0       	rjmp	.+34     	; 0xb4c <__vector_3+0x98>
	}
	else
	{
		if (LED_Elive_Counter == 0)
     b2a:	80 91 68 00 	lds	r24, 0x0068	; 0x800068 <LED_Elive_Counter>
     b2e:	81 11       	cpse	r24, r1
     b30:	0d c0       	rjmp	.+26     	; 0xb4c <__vector_3+0x98>
		{
			LED_Elive_Counter = 200;
     b32:	88 ec       	ldi	r24, 0xC8	; 200
     b34:	80 93 68 00 	sts	0x0068, r24	; 0x800068 <LED_Elive_Counter>
			LED = !LED;
     b38:	82 b3       	in	r24, 0x12	; 18
     b3a:	83 fb       	bst	r24, 3
     b3c:	99 27       	eor	r25, r25
     b3e:	90 f9       	bld	r25, 0
     b40:	81 e0       	ldi	r24, 0x01	; 1
     b42:	89 27       	eor	r24, r25
     b44:	80 fd       	sbrc	r24, 0
     b46:	93 9a       	sbi	0x12, 3	; 18
     b48:	80 ff       	sbrs	r24, 0
     b4a:	93 98       	cbi	0x12, 3	; 18
		}
	}
}
     b4c:	ff 91       	pop	r31
     b4e:	ef 91       	pop	r30
     b50:	bf 91       	pop	r27
     b52:	af 91       	pop	r26
     b54:	9f 91       	pop	r25
     b56:	8f 91       	pop	r24
     b58:	7f 91       	pop	r23
     b5a:	6f 91       	pop	r22
     b5c:	5f 91       	pop	r21
     b5e:	4f 91       	pop	r20
     b60:	3f 91       	pop	r19
     b62:	2f 91       	pop	r18
     b64:	0f 90       	pop	r0
     b66:	0f be       	out	0x3f, r0	; 63
     b68:	0f 90       	pop	r0
     b6a:	1f 90       	pop	r1
     b6c:	18 95       	reti

00000b6e <__vector_11>:

ISR(USART_RXC_vect)
{
     b6e:	1f 92       	push	r1
     b70:	0f 92       	push	r0
     b72:	0f b6       	in	r0, 0x3f	; 63
     b74:	0f 92       	push	r0
     b76:	11 24       	eor	r1, r1
     b78:	8f 93       	push	r24
     b7a:	9f 93       	push	r25
     b7c:	ef 93       	push	r30
     b7e:	ff 93       	push	r31
	//first_bit = (UCSRB & (1 << RXB8));
	//Якщо отримали ознаку першого байту, - обнулити лічильник буферу
	if (USART_RX_9BIT == 1)
     b80:	51 9b       	sbis	0x0a, 1	; 10
     b82:	09 c0       	rjmp	.+18     	; 0xb96 <__vector_11+0x28>
	{
		rx_counter = 0;
     b84:	10 92 21 01 	sts	0x0121, r1	; 0x800121 <rx_counter>
		Old_Data_Flag = 0;
     b88:	10 92 65 00 	sts	0x0065, r1	; 0x800065 <Old_Data_Flag>
	}
	rx_buffer [rx_counter] = UDR;
     b8c:	8c b1       	in	r24, 0x0c	; 12
     b8e:	80 93 13 01 	sts	0x0113, r24	; 0x800113 <rx_buffer>
     b92:	80 e0       	ldi	r24, 0x00	; 0
     b94:	1f c0       	rjmp	.+62     	; 0xbd4 <__vector_11+0x66>
     b96:	80 91 21 01 	lds	r24, 0x0121	; 0x800121 <rx_counter>
     b9a:	e8 2f       	mov	r30, r24
     b9c:	f0 e0       	ldi	r31, 0x00	; 0
     b9e:	9c b1       	in	r25, 0x0c	; 12
     ba0:	ed 5e       	subi	r30, 0xED	; 237
     ba2:	fe 4f       	sbci	r31, 0xFE	; 254
     ba4:	90 83       	st	Z, r25
	if (rx_counter == INDEX_DATA_TYPE) {
     ba6:	82 30       	cpi	r24, 0x02	; 2
     ba8:	99 f4       	brne	.+38     	; 0xbd0 <__vector_11+0x62>
		if (rx_buffer [INDEX_DATA_TYPE] == MODULAR_RB_DATA_TYPE || rx_buffer [INDEX_DATA_TYPE] == RB_DATA_TYPE || rx_buffer [INDEX_DATA_TYPE] == BOLLARD_DATA_TYPE) {
     baa:	90 91 15 01 	lds	r25, 0x0115	; 0x800115 <rx_buffer+0x2>
     bae:	9a 3a       	cpi	r25, 0xAA	; 170
     bb0:	41 f0       	breq	.+16     	; 0xbc2 <__vector_11+0x54>
     bb2:	90 91 15 01 	lds	r25, 0x0115	; 0x800115 <rx_buffer+0x2>
     bb6:	9a 3f       	cpi	r25, 0xFA	; 250
     bb8:	21 f0       	breq	.+8      	; 0xbc2 <__vector_11+0x54>
     bba:	90 91 15 01 	lds	r25, 0x0115	; 0x800115 <rx_buffer+0x2>
     bbe:	9d 3b       	cpi	r25, 0xBD	; 189
     bc0:	19 f4       	brne	.+6      	; 0xbc8 <__vector_11+0x5a>
			Old_Data_Flag = 0;
     bc2:	10 92 65 00 	sts	0x0065, r1	; 0x800065 <Old_Data_Flag>
     bc6:	17 c0       	rjmp	.+46     	; 0xbf6 <__vector_11+0x88>
		} else {
			Old_Data_Flag = 1;
     bc8:	91 e0       	ldi	r25, 0x01	; 1
     bca:	90 93 65 00 	sts	0x0065, r25	; 0x800065 <Old_Data_Flag>
     bce:	13 c0       	rjmp	.+38     	; 0xbf6 <__vector_11+0x88>
		}
	}
	if (rx_counter < DATA_PACKAGE_SIZE - 1) {
     bd0:	86 30       	cpi	r24, 0x06	; 6
     bd2:	68 f4       	brcc	.+26     	; 0xbee <__vector_11+0x80>
		if (Old_Data_Flag == 1 && (rx_counter == OLD_DATA_PACKAGE_SIZE - 1)) {
     bd4:	90 91 65 00 	lds	r25, 0x0065	; 0x800065 <Old_Data_Flag>
     bd8:	99 23       	and	r25, r25
     bda:	29 f0       	breq	.+10     	; 0xbe6 <__vector_11+0x78>
     bdc:	84 30       	cpi	r24, 0x04	; 4
     bde:	19 f4       	brne	.+6      	; 0xbe6 <__vector_11+0x78>
			UART_RX_Complete_FLAG = 1;
     be0:	91 e0       	ldi	r25, 0x01	; 1
     be2:	90 93 64 00 	sts	0x0064, r25	; 0x800064 <UART_RX_Complete_FLAG>
		}
		rx_counter ++;
     be6:	8f 5f       	subi	r24, 0xFF	; 255
     be8:	80 93 21 01 	sts	0x0121, r24	; 0x800121 <rx_counter>
     bec:	07 c0       	rjmp	.+14     	; 0xbfc <__vector_11+0x8e>
	}
	else
	{
		UART_RX_Complete_FLAG = 1;
     bee:	81 e0       	ldi	r24, 0x01	; 1
     bf0:	80 93 64 00 	sts	0x0064, r24	; 0x800064 <UART_RX_Complete_FLAG>
	}
}
     bf4:	03 c0       	rjmp	.+6      	; 0xbfc <__vector_11+0x8e>
		} else {
			Old_Data_Flag = 1;
		}
	}
	if (rx_counter < DATA_PACKAGE_SIZE - 1) {
		if (Old_Data_Flag == 1 && (rx_counter == OLD_DATA_PACKAGE_SIZE - 1)) {
     bf6:	90 91 65 00 	lds	r25, 0x0065	; 0x800065 <Old_Data_Flag>
     bfa:	f5 cf       	rjmp	.-22     	; 0xbe6 <__vector_11+0x78>
	}
	else
	{
		UART_RX_Complete_FLAG = 1;
	}
}
     bfc:	ff 91       	pop	r31
     bfe:	ef 91       	pop	r30
     c00:	9f 91       	pop	r25
     c02:	8f 91       	pop	r24
     c04:	0f 90       	pop	r0
     c06:	0f be       	out	0x3f, r0	; 63
     c08:	0f 90       	pop	r0
     c0a:	1f 90       	pop	r1
     c0c:	18 95       	reti

00000c0e <__vector_13>:


ISR(USART_TXC_vect)
{
     c0e:	1f 92       	push	r1
     c10:	0f 92       	push	r0
     c12:	0f b6       	in	r0, 0x3f	; 63
     c14:	0f 92       	push	r0
     c16:	11 24       	eor	r1, r1
     c18:	8f 93       	push	r24
     c1a:	ef 93       	push	r30
     c1c:	ff 93       	push	r31
	if (tx_counter > 0)
     c1e:	80 91 12 01 	lds	r24, 0x0112	; 0x800112 <tx_counter>
     c22:	88 23       	and	r24, r24
     c24:	f1 f0       	breq	.+60     	; 0xc62 <__vector_13+0x54>
	{
		tx_counter--;
     c26:	81 50       	subi	r24, 0x01	; 1
     c28:	80 93 12 01 	sts	0x0112, r24	; 0x800112 <tx_counter>
		UCSRB &= ~(1 << TXB8);       //Скинули 9-й біт
     c2c:	50 98       	cbi	0x0a, 0	; 10
		
		if (Old_Data_Flag) {
     c2e:	80 91 65 00 	lds	r24, 0x0065	; 0x800065 <Old_Data_Flag>
     c32:	88 23       	and	r24, r24
     c34:	59 f0       	breq	.+22     	; 0xc4c <__vector_13+0x3e>
			UDR = tx_buffer[(OLD_DATA_PACKAGE_SIZE-1) - tx_counter];
     c36:	80 91 12 01 	lds	r24, 0x0112	; 0x800112 <tx_counter>
     c3a:	e4 e0       	ldi	r30, 0x04	; 4
     c3c:	f0 e0       	ldi	r31, 0x00	; 0
     c3e:	e8 1b       	sub	r30, r24
     c40:	f1 09       	sbc	r31, r1
     c42:	e6 5e       	subi	r30, 0xE6	; 230
     c44:	fe 4f       	sbci	r31, 0xFE	; 254
     c46:	80 81       	ld	r24, Z
     c48:	8c b9       	out	0x0c, r24	; 12
     c4a:	0e c0       	rjmp	.+28     	; 0xc68 <__vector_13+0x5a>
		} else {
			UDR = tx_buffer[(DATA_PACKAGE_SIZE-1) - tx_counter];
     c4c:	80 91 12 01 	lds	r24, 0x0112	; 0x800112 <tx_counter>
     c50:	e6 e0       	ldi	r30, 0x06	; 6
     c52:	f0 e0       	ldi	r31, 0x00	; 0
     c54:	e8 1b       	sub	r30, r24
     c56:	f1 09       	sbc	r31, r1
     c58:	e6 5e       	subi	r30, 0xE6	; 230
     c5a:	fe 4f       	sbci	r31, 0xFE	; 254
     c5c:	80 81       	ld	r24, Z
     c5e:	8c b9       	out	0x0c, r24	; 12
     c60:	03 c0       	rjmp	.+6      	; 0xc68 <__vector_13+0x5a>
		}
	}
	else
	{
		Old_Data_Flag = 0;
     c62:	10 92 65 00 	sts	0x0065, r1	; 0x800065 <Old_Data_Flag>
		RX_ON;
     c66:	92 98       	cbi	0x12, 2	; 18
	}
}
     c68:	ff 91       	pop	r31
     c6a:	ef 91       	pop	r30
     c6c:	8f 91       	pop	r24
     c6e:	0f 90       	pop	r0
     c70:	0f be       	out	0x3f, r0	; 63
     c72:	0f 90       	pop	r0
     c74:	1f 90       	pop	r1
     c76:	18 95       	reti

00000c78 <Timer_2_Init>:

/* ======================================================================================================*/

void Timer_2_Init(void)
{
	TCCR2 |= (1 << CS22) | (1 << WGM21);//pres 64, Clear Timer on Compare Match mod
     c78:	85 b5       	in	r24, 0x25	; 37
     c7a:	8c 60       	ori	r24, 0x0C	; 12
     c7c:	85 bd       	out	0x25, r24	; 37
	TIMSK |= (1 << OCIE2);
     c7e:	89 b7       	in	r24, 0x39	; 57
     c80:	80 68       	ori	r24, 0x80	; 128
     c82:	89 bf       	out	0x39, r24	; 57
	OCR2 = 230;
     c84:	86 ee       	ldi	r24, 0xE6	; 230
     c86:	83 bd       	out	0x23, r24	; 35
     c88:	08 95       	ret

00000c8a <UART_Init>:
}

void UART_Init(uint16_t ubrr_value)
{
	UBRRH = (unsigned char)(ubrr_value >> 8);
     c8a:	90 bd       	out	0x20, r25	; 32
	UBRRL = (unsigned char)ubrr_value;
     c8c:	89 b9       	out	0x09, r24	; 9
	#ifdef DEBUG_MOD
	UCSRB |= (1 << TXEN) | (1 << RXEN);
	UCSRC |= (1 << URSEL) | (1 << UCSZ1) | (1 << UCSZ0);
	#else
	UCSRB |= (1 << RXCIE) | (1 << TXCIE) | (1 << TXEN) | (1 << RXEN) | (1 << UCSZ2);
     c8e:	8a b1       	in	r24, 0x0a	; 10
     c90:	8c 6d       	ori	r24, 0xDC	; 220
     c92:	8a b9       	out	0x0a, r24	; 10
	// Встановлення формату кадру: 9 бітів даних, 1 стоп біт, без парності
	UCSRC |= (1 << URSEL) | (1 << UCSZ1) | (1 << UCSZ0);	
     c94:	80 b5       	in	r24, 0x20	; 32
     c96:	86 68       	ori	r24, 0x86	; 134
     c98:	80 bd       	out	0x20, r24	; 32
     c9a:	08 95       	ret

00000c9c <main>:
}


int main(void)
{
	Sensor_Addres = eeprom_read_byte((uint8_t*)EEPROM_SENS_ADDR);
     c9c:	80 e0       	ldi	r24, 0x00	; 0
     c9e:	90 e0       	ldi	r25, 0x00	; 0
     ca0:	3f d6       	rcall	.+3198   	; 0x1920 <eeprom_read_byte>
     ca2:	80 93 61 00 	sts	0x0061, r24	; 0x800061 <Sensor_Addres>
	Sensor_Position = eeprom_read_byte((uint8_t*)EEPROM_POSITION);
     ca6:	81 e0       	ldi	r24, 0x01	; 1
     ca8:	90 e0       	ldi	r25, 0x00	; 0
     caa:	3a d6       	rcall	.+3188   	; 0x1920 <eeprom_read_byte>
     cac:	80 93 60 00 	sts	0x0060, r24	; 0x800060 <__DATA_REGION_ORIGIN__>
	if (Sensor_Addres > 4 || Sensor_Addres == 0)
     cb0:	80 91 61 00 	lds	r24, 0x0061	; 0x800061 <Sensor_Addres>
     cb4:	85 30       	cpi	r24, 0x05	; 5
     cb6:	20 f4       	brcc	.+8      	; 0xcc0 <main+0x24>
     cb8:	80 91 61 00 	lds	r24, 0x0061	; 0x800061 <Sensor_Addres>
     cbc:	81 11       	cpse	r24, r1
     cbe:	08 c0       	rjmp	.+16     	; 0xcd0 <main+0x34>
	{
		Sensor_Addres = ANGLE_SENS_ADDRESS_1;
     cc0:	81 e0       	ldi	r24, 0x01	; 1
     cc2:	80 93 61 00 	sts	0x0061, r24	; 0x800061 <Sensor_Addres>
		eeprom_write_byte((uint8_t*)EEPROM_SENS_ADDR, Sensor_Addres);
     cc6:	60 91 61 00 	lds	r22, 0x0061	; 0x800061 <Sensor_Addres>
     cca:	80 e0       	ldi	r24, 0x00	; 0
     ccc:	90 e0       	ldi	r25, 0x00	; 0
     cce:	30 d6       	rcall	.+3168   	; 0x1930 <eeprom_write_byte>
	}
	sei();
     cd0:	78 94       	sei
__attribute__ ((__always_inline__))
void wdt_enable (const uint8_t value)
{
	if (_SFR_IO_REG_P (_WD_CONTROL_REG))
	{
		__asm__ __volatile__ (
     cd2:	9e e0       	ldi	r25, 0x0E	; 14
     cd4:	88 e1       	ldi	r24, 0x18	; 24
     cd6:	0f b6       	in	r0, 0x3f	; 63
     cd8:	f8 94       	cli
     cda:	a8 95       	wdr
     cdc:	81 bd       	out	0x21, r24	; 33
     cde:	0f be       	out	0x3f, r0	; 63
     ce0:	91 bd       	out	0x21, r25	; 33
	wdt_enable(WDTO_1S);
	_LCD_PORT_DIR = _ALL_OUTPUT;
     ce2:	8f ef       	ldi	r24, 0xFF	; 255
     ce4:	84 bb       	out	0x14, r24	; 20
	_I2C_PORT_DIR = ( 1 << _SDA ) | _SCL;
     ce6:	83 e0       	ldi	r24, 0x03	; 3
     ce8:	84 bb       	out	0x14, r24	; 20
	
	/* MPU6050 Init */
	MPU6050_AutoInit(100);
     cea:	84 e6       	ldi	r24, 0x64	; 100
     cec:	90 e0       	ldi	r25, 0x00	; 0
     cee:	6d d2       	rcall	.+1242   	; 0x11ca <MPU6050_AutoInit>
	Timer_2_Init();
     cf0:	c3 df       	rcall	.-122    	; 0xc78 <Timer_2_Init>
	UART_Init(UBRR_SPEED);
     cf2:	8f e2       	ldi	r24, 0x2F	; 47
     cf4:	90 e0       	ldi	r25, 0x00	; 0
     cf6:	c9 df       	rcall	.-110    	; 0xc8a <UART_Init>
	RX_TX_DIRECTION = 1;
     cf8:	8a 9a       	sbi	0x11, 2	; 17
	LED_OUT = 1;
     cfa:	8b 9a       	sbi	0x11, 3	; 17
	LED = 1;
     cfc:	93 9a       	sbi	0x12, 3	; 18
	#else
		//round up by default
		__ticks_dc = (uint32_t)(ceil(fabs(__tmp)));
	#endif

	__builtin_avr_delay_cycles(__ticks_dc);
     cfe:	2f ef       	ldi	r18, 0xFF	; 255
     d00:	8f e7       	ldi	r24, 0x7F	; 127
     d02:	94 e0       	ldi	r25, 0x04	; 4
     d04:	21 50       	subi	r18, 0x01	; 1
     d06:	80 40       	sbci	r24, 0x00	; 0
     d08:	90 40       	sbci	r25, 0x00	; 0
     d0a:	e1 f7       	brne	.-8      	; 0xd04 <main+0x68>
     d0c:	00 c0       	rjmp	.+0      	; 0xd0e <main+0x72>
     d0e:	00 00       	nop
    {
		MPU6050_GetRawAccel(&All_Axis_ROW.Xaccel_raw, 20);
		MPU6050_GetRawGyro(&All_Axis_ROW.Xgyro_raw, 20);
		
		wdt_reset();
		All_Axis.F_x_accel = All_axis_kalman_filter(&X_Axis, (float)All_Axis_ROW.Xaccel_raw, (float)All_Axis_ROW.Xgyro_raw, 0.0053f);
     d10:	0f 2e       	mov	r0, r31
     d12:	ff eb       	ldi	r31, 0xBF	; 191
     d14:	2f 2e       	mov	r2, r31
     d16:	f0 e0       	ldi	r31, 0x00	; 0
     d18:	3f 2e       	mov	r3, r31
     d1a:	f0 2d       	mov	r31, r0
	_delay_ms(100);
	//MPU6050_Calibrate(offsetGX, offsetGY, offsetGZ);
	/* ---------------------------------------- */
    while (1) 
    {
		MPU6050_GetRawAccel(&All_Axis_ROW.Xaccel_raw, 20);
     d1c:	64 e1       	ldi	r22, 0x14	; 20
     d1e:	70 e0       	ldi	r23, 0x00	; 0
     d20:	83 ee       	ldi	r24, 0xE3	; 227
     d22:	90 e0       	ldi	r25, 0x00	; 0
     d24:	ef d2       	rcall	.+1502   	; 0x1304 <MPU6050_GetRawAccel>
		MPU6050_GetRawGyro(&All_Axis_ROW.Xgyro_raw, 20);
     d26:	64 e1       	ldi	r22, 0x14	; 20
     d28:	70 e0       	ldi	r23, 0x00	; 0
     d2a:	89 ee       	ldi	r24, 0xE9	; 233
     d2c:	90 e0       	ldi	r25, 0x00	; 0
     d2e:	1d d3       	rcall	.+1594   	; 0x136a <MPU6050_GetRawGyro>
		
		wdt_reset();
     d30:	a8 95       	wdr
		All_Axis.F_x_accel = All_axis_kalman_filter(&X_Axis, (float)All_Axis_ROW.Xaccel_raw, (float)All_Axis_ROW.Xgyro_raw, 0.0053f);
     d32:	c3 ee       	ldi	r28, 0xE3	; 227
     d34:	d0 e0       	ldi	r29, 0x00	; 0
     d36:	6e 81       	ldd	r22, Y+6	; 0x06
     d38:	7f 81       	ldd	r23, Y+7	; 0x07
     d3a:	07 2e       	mov	r0, r23
     d3c:	00 0c       	add	r0, r0
     d3e:	88 0b       	sbc	r24, r24
     d40:	99 0b       	sbc	r25, r25
     d42:	ac d4       	rcall	.+2392   	; 0x169c <__floatsisf>
     d44:	2b 01       	movw	r4, r22
     d46:	3c 01       	movw	r6, r24
     d48:	68 81       	ld	r22, Y
     d4a:	79 81       	ldd	r23, Y+1	; 0x01
     d4c:	07 2e       	mov	r0, r23
     d4e:	00 0c       	add	r0, r0
     d50:	88 0b       	sbc	r24, r24
     d52:	99 0b       	sbc	r25, r25
     d54:	a3 d4       	rcall	.+2374   	; 0x169c <__floatsisf>
     d56:	ab 01       	movw	r20, r22
     d58:	bc 01       	movw	r22, r24
     d5a:	0f 2e       	mov	r0, r31
     d5c:	ff e9       	ldi	r31, 0x9F	; 159
     d5e:	cf 2e       	mov	r12, r31
     d60:	fb ea       	ldi	r31, 0xAB	; 171
     d62:	df 2e       	mov	r13, r31
     d64:	fd ea       	ldi	r31, 0xAD	; 173
     d66:	ef 2e       	mov	r14, r31
     d68:	fb e3       	ldi	r31, 0x3B	; 59
     d6a:	ff 2e       	mov	r15, r31
     d6c:	f0 2d       	mov	r31, r0
     d6e:	93 01       	movw	r18, r6
     d70:	82 01       	movw	r16, r4
     d72:	87 ea       	ldi	r24, 0xA7	; 167
     d74:	90 e0       	ldi	r25, 0x00	; 0
     d76:	ef db       	rcall	.-2082   	; 0x556 <All_axis_kalman_filter>
     d78:	f1 01       	movw	r30, r2
     d7a:	60 83       	st	Z, r22
     d7c:	71 83       	std	Z+1, r23	; 0x01
     d7e:	82 83       	std	Z+2, r24	; 0x02
     d80:	93 83       	std	Z+3, r25	; 0x03
		All_Axis.F_y_accel = All_axis_kalman_filter(&Y_Axis, (float)All_Axis_ROW.Yaccel_raw, (float)All_Axis_ROW.Ygyro_raw, 0.0053f);
     d82:	68 85       	ldd	r22, Y+8	; 0x08
     d84:	79 85       	ldd	r23, Y+9	; 0x09
     d86:	07 2e       	mov	r0, r23
     d88:	00 0c       	add	r0, r0
     d8a:	88 0b       	sbc	r24, r24
     d8c:	99 0b       	sbc	r25, r25
     d8e:	86 d4       	rcall	.+2316   	; 0x169c <__floatsisf>
     d90:	2b 01       	movw	r4, r22
     d92:	3c 01       	movw	r6, r24
     d94:	6a 81       	ldd	r22, Y+2	; 0x02
     d96:	7b 81       	ldd	r23, Y+3	; 0x03
     d98:	07 2e       	mov	r0, r23
     d9a:	00 0c       	add	r0, r0
     d9c:	88 0b       	sbc	r24, r24
     d9e:	99 0b       	sbc	r25, r25
     da0:	7d d4       	rcall	.+2298   	; 0x169c <__floatsisf>
     da2:	ab 01       	movw	r20, r22
     da4:	bc 01       	movw	r22, r24
     da6:	93 01       	movw	r18, r6
     da8:	82 01       	movw	r16, r4
     daa:	8f e8       	ldi	r24, 0x8F	; 143
     dac:	90 e0       	ldi	r25, 0x00	; 0
     dae:	d3 db       	rcall	.-2138   	; 0x556 <All_axis_kalman_filter>
     db0:	f1 01       	movw	r30, r2
     db2:	64 83       	std	Z+4, r22	; 0x04
     db4:	75 83       	std	Z+5, r23	; 0x05
     db6:	86 83       	std	Z+6, r24	; 0x06
     db8:	97 83       	std	Z+7, r25	; 0x07
		All_Axis.F_z_accel = All_axis_kalman_filter(&Z_Axis, (float)All_Axis_ROW.Zaccel_raw, (float)All_Axis_ROW.Zgyro_raw, 0.0053f);
     dba:	6a 85       	ldd	r22, Y+10	; 0x0a
     dbc:	7b 85       	ldd	r23, Y+11	; 0x0b
     dbe:	07 2e       	mov	r0, r23
     dc0:	00 0c       	add	r0, r0
     dc2:	88 0b       	sbc	r24, r24
     dc4:	99 0b       	sbc	r25, r25
     dc6:	6a d4       	rcall	.+2260   	; 0x169c <__floatsisf>
     dc8:	2b 01       	movw	r4, r22
     dca:	3c 01       	movw	r6, r24
     dcc:	6c 81       	ldd	r22, Y+4	; 0x04
     dce:	7d 81       	ldd	r23, Y+5	; 0x05
     dd0:	07 2e       	mov	r0, r23
     dd2:	00 0c       	add	r0, r0
     dd4:	88 0b       	sbc	r24, r24
     dd6:	99 0b       	sbc	r25, r25
     dd8:	61 d4       	rcall	.+2242   	; 0x169c <__floatsisf>
     dda:	ab 01       	movw	r20, r22
     ddc:	bc 01       	movw	r22, r24
     dde:	93 01       	movw	r18, r6
     de0:	82 01       	movw	r16, r4
     de2:	87 e7       	ldi	r24, 0x77	; 119
     de4:	90 e0       	ldi	r25, 0x00	; 0
     de6:	b7 db       	rcall	.-2194   	; 0x556 <All_axis_kalman_filter>
     de8:	6b 01       	movw	r12, r22
     dea:	7c 01       	movw	r14, r24
     dec:	f1 01       	movw	r30, r2
     dee:	60 87       	std	Z+8, r22	; 0x08
     df0:	71 87       	std	Z+9, r23	; 0x09
     df2:	82 87       	std	Z+10, r24	; 0x0a
     df4:	93 87       	std	Z+11, r25	; 0x0b
		
		#ifdef DEBUG_MOD
		Ploter_angle = ( _MPU_RAD_TO_DEG * ( atan2( -All_Axis_ROW.Xaccel_raw , -All_Axis_ROW.Zaccel_raw ) + _MATH_PI ) );
		#endif
		Y_angle = ( _MPU_RAD_TO_DEG * ( atan2( -All_Axis.F_x_accel , -All_Axis.F_z_accel ) + _MATH_PI ) );
     df6:	80 80       	ld	r8, Z
     df8:	91 80       	ldd	r9, Z+1	; 0x01
     dfa:	a2 80       	ldd	r10, Z+2	; 0x02
     dfc:	b3 80       	ldd	r11, Z+3	; 0x03
     dfe:	24 01       	movw	r4, r8
     e00:	35 01       	movw	r6, r10
     e02:	77 fa       	bst	r7, 7
     e04:	70 94       	com	r7
     e06:	77 f8       	bld	r7, 7
     e08:	70 94       	com	r7
     e0a:	9b 01       	movw	r18, r22
     e0c:	ac 01       	movw	r20, r24
     e0e:	50 58       	subi	r21, 0x80	; 128
     e10:	c3 01       	movw	r24, r6
     e12:	b2 01       	movw	r22, r4
     e14:	51 d3       	rcall	.+1698   	; 0x14b8 <atan2>
     e16:	2b ed       	ldi	r18, 0xDB	; 219
     e18:	3f e0       	ldi	r19, 0x0F	; 15
     e1a:	49 e4       	ldi	r20, 0x49	; 73
     e1c:	50 e4       	ldi	r21, 0x40	; 64
     e1e:	d9 d2       	rcall	.+1458   	; 0x13d2 <__addsf3>
     e20:	21 ee       	ldi	r18, 0xE1	; 225
     e22:	3e e2       	ldi	r19, 0x2E	; 46
     e24:	45 e6       	ldi	r20, 0x65	; 101
     e26:	52 e4       	ldi	r21, 0x42	; 66
     e28:	15 d5       	rcall	.+2602   	; 0x1854 <__mulsf3>
     e2a:	60 93 73 00 	sts	0x0073, r22	; 0x800073 <Y_angle>
     e2e:	70 93 74 00 	sts	0x0074, r23	; 0x800074 <Y_angle+0x1>
     e32:	80 93 75 00 	sts	0x0075, r24	; 0x800075 <Y_angle+0x2>
     e36:	90 93 76 00 	sts	0x0076, r25	; 0x800076 <Y_angle+0x3>

		//Y_angle = kalman_filter(All_Axis.y_accel, All_Axis.y_gyro, 0.0053f); //5.3 ms
		//Ploter_angle = Y_angle;
		
	//====================================Output depending on the type BEGIN======================================
		if (Angle_Type == RB_DATA_TYPE){
     e3a:	80 91 62 00 	lds	r24, 0x0062	; 0x800062 <Angle_Type>
     e3e:	8a 3f       	cpi	r24, 0xFA	; 250
     e40:	a9 f4       	brne	.+42     	; 0xe6c <main+0x1d0>
			Y_angle -= 90.0f;
     e42:	60 91 73 00 	lds	r22, 0x0073	; 0x800073 <Y_angle>
     e46:	70 91 74 00 	lds	r23, 0x0074	; 0x800074 <Y_angle+0x1>
     e4a:	80 91 75 00 	lds	r24, 0x0075	; 0x800075 <Y_angle+0x2>
     e4e:	90 91 76 00 	lds	r25, 0x0076	; 0x800076 <Y_angle+0x3>
     e52:	20 e0       	ldi	r18, 0x00	; 0
     e54:	30 e0       	ldi	r19, 0x00	; 0
     e56:	44 eb       	ldi	r20, 0xB4	; 180
     e58:	52 e4       	ldi	r21, 0x42	; 66
     e5a:	ba d2       	rcall	.+1396   	; 0x13d0 <__subsf3>
     e5c:	60 93 73 00 	sts	0x0073, r22	; 0x800073 <Y_angle>
     e60:	70 93 74 00 	sts	0x0074, r23	; 0x800074 <Y_angle+0x1>
     e64:	80 93 75 00 	sts	0x0075, r24	; 0x800075 <Y_angle+0x2>
     e68:	90 93 76 00 	sts	0x0076, r25	; 0x800076 <Y_angle+0x3>
		}
		if (Y_angle <= 180.0f){
     e6c:	60 91 73 00 	lds	r22, 0x0073	; 0x800073 <Y_angle>
     e70:	70 91 74 00 	lds	r23, 0x0074	; 0x800074 <Y_angle+0x1>
     e74:	80 91 75 00 	lds	r24, 0x0075	; 0x800075 <Y_angle+0x2>
     e78:	90 91 76 00 	lds	r25, 0x0076	; 0x800076 <Y_angle+0x3>
     e7c:	20 e0       	ldi	r18, 0x00	; 0
     e7e:	30 e0       	ldi	r19, 0x00	; 0
     e80:	44 e3       	ldi	r20, 0x34	; 52
     e82:	53 e4       	ldi	r21, 0x43	; 67
     e84:	6c d3       	rcall	.+1752   	; 0x155e <__cmpsf2>
     e86:	18 16       	cp	r1, r24
     e88:	8c f0       	brlt	.+34     	; 0xeac <main+0x210>
			Y_angle = Y_angle;
     e8a:	80 91 73 00 	lds	r24, 0x0073	; 0x800073 <Y_angle>
     e8e:	90 91 74 00 	lds	r25, 0x0074	; 0x800074 <Y_angle+0x1>
     e92:	a0 91 75 00 	lds	r26, 0x0075	; 0x800075 <Y_angle+0x2>
     e96:	b0 91 76 00 	lds	r27, 0x0076	; 0x800076 <Y_angle+0x3>
     e9a:	80 93 73 00 	sts	0x0073, r24	; 0x800073 <Y_angle>
     e9e:	90 93 74 00 	sts	0x0074, r25	; 0x800074 <Y_angle+0x1>
     ea2:	a0 93 75 00 	sts	0x0075, r26	; 0x800075 <Y_angle+0x2>
     ea6:	b0 93 76 00 	sts	0x0076, r27	; 0x800076 <Y_angle+0x3>
     eaa:	15 c0       	rjmp	.+42     	; 0xed6 <main+0x23a>
		}else{
			Y_angle = Y_angle - 360.0f;
     eac:	60 91 73 00 	lds	r22, 0x0073	; 0x800073 <Y_angle>
     eb0:	70 91 74 00 	lds	r23, 0x0074	; 0x800074 <Y_angle+0x1>
     eb4:	80 91 75 00 	lds	r24, 0x0075	; 0x800075 <Y_angle+0x2>
     eb8:	90 91 76 00 	lds	r25, 0x0076	; 0x800076 <Y_angle+0x3>
     ebc:	20 e0       	ldi	r18, 0x00	; 0
     ebe:	30 e0       	ldi	r19, 0x00	; 0
     ec0:	44 eb       	ldi	r20, 0xB4	; 180
     ec2:	53 e4       	ldi	r21, 0x43	; 67
     ec4:	85 d2       	rcall	.+1290   	; 0x13d0 <__subsf3>
     ec6:	60 93 73 00 	sts	0x0073, r22	; 0x800073 <Y_angle>
     eca:	70 93 74 00 	sts	0x0074, r23	; 0x800074 <Y_angle+0x1>
     ece:	80 93 75 00 	sts	0x0075, r24	; 0x800075 <Y_angle+0x2>
     ed2:	90 93 76 00 	sts	0x0076, r25	; 0x800076 <Y_angle+0x3>
		bool temp_flag = 0;
		#ifdef DEBUG_MOD
		temp_flag = 1;
		#endif
		
		if (Angle_Type == BOLLARD_DATA_TYPE || temp_flag == 0)
     ed6:	80 91 62 00 	lds	r24, 0x0062	; 0x800062 <Angle_Type>
		{
			if(abs(MAX_Accel_Value_X) < abs(All_Axis_ROW.Xaccel_raw)){
     eda:	80 91 e3 00 	lds	r24, 0x00E3	; 0x8000e3 <All_Axis_ROW>
     ede:	90 91 e4 00 	lds	r25, 0x00E4	; 0x8000e4 <All_Axis_ROW+0x1>
     ee2:	20 91 6d 00 	lds	r18, 0x006D	; 0x80006d <MAX_Accel_Value_X>
     ee6:	30 91 6e 00 	lds	r19, 0x006E	; 0x80006e <MAX_Accel_Value_X+0x1>
     eea:	33 23       	and	r19, r19
     eec:	1c f4       	brge	.+6      	; 0xef4 <main+0x258>
     eee:	31 95       	neg	r19
     ef0:	21 95       	neg	r18
     ef2:	31 09       	sbc	r19, r1
     ef4:	ac 01       	movw	r20, r24
     ef6:	99 23       	and	r25, r25
     ef8:	24 f4       	brge	.+8      	; 0xf02 <main+0x266>
     efa:	44 27       	eor	r20, r20
     efc:	55 27       	eor	r21, r21
     efe:	48 1b       	sub	r20, r24
     f00:	59 0b       	sbc	r21, r25
     f02:	24 17       	cp	r18, r20
     f04:	35 07       	cpc	r19, r21
     f06:	24 f4       	brge	.+8      	; 0xf10 <main+0x274>
				MAX_Accel_Value_X = All_Axis_ROW.Xaccel_raw;
     f08:	90 93 6e 00 	sts	0x006E, r25	; 0x80006e <MAX_Accel_Value_X+0x1>
     f0c:	80 93 6d 00 	sts	0x006D, r24	; 0x80006d <MAX_Accel_Value_X>
			}
			if(abs(MAX_Accel_Value_Y) < abs(All_Axis_ROW.Yaccel_raw)){
     f10:	80 91 e5 00 	lds	r24, 0x00E5	; 0x8000e5 <All_Axis_ROW+0x2>
     f14:	90 91 e6 00 	lds	r25, 0x00E6	; 0x8000e6 <All_Axis_ROW+0x3>
     f18:	20 91 6b 00 	lds	r18, 0x006B	; 0x80006b <MAX_Accel_Value_Y>
     f1c:	30 91 6c 00 	lds	r19, 0x006C	; 0x80006c <MAX_Accel_Value_Y+0x1>
     f20:	33 23       	and	r19, r19
     f22:	1c f4       	brge	.+6      	; 0xf2a <main+0x28e>
     f24:	31 95       	neg	r19
     f26:	21 95       	neg	r18
     f28:	31 09       	sbc	r19, r1
     f2a:	ac 01       	movw	r20, r24
     f2c:	99 23       	and	r25, r25
     f2e:	24 f4       	brge	.+8      	; 0xf38 <main+0x29c>
     f30:	44 27       	eor	r20, r20
     f32:	55 27       	eor	r21, r21
     f34:	48 1b       	sub	r20, r24
     f36:	59 0b       	sbc	r21, r25
     f38:	24 17       	cp	r18, r20
     f3a:	35 07       	cpc	r19, r21
     f3c:	24 f4       	brge	.+8      	; 0xf46 <main+0x2aa>
				MAX_Accel_Value_Y = All_Axis_ROW.Yaccel_raw;
     f3e:	90 93 6c 00 	sts	0x006C, r25	; 0x80006c <MAX_Accel_Value_Y+0x1>
     f42:	80 93 6b 00 	sts	0x006B, r24	; 0x80006b <MAX_Accel_Value_Y>
			}
			if(abs(MAX_Accel_Value_Z) < abs(All_Axis_ROW.Zaccel_raw)){
     f46:	80 91 e7 00 	lds	r24, 0x00E7	; 0x8000e7 <All_Axis_ROW+0x4>
     f4a:	90 91 e8 00 	lds	r25, 0x00E8	; 0x8000e8 <All_Axis_ROW+0x5>
     f4e:	20 91 69 00 	lds	r18, 0x0069	; 0x800069 <MAX_Accel_Value_Z>
     f52:	30 91 6a 00 	lds	r19, 0x006A	; 0x80006a <MAX_Accel_Value_Z+0x1>
     f56:	33 23       	and	r19, r19
     f58:	1c f4       	brge	.+6      	; 0xf60 <main+0x2c4>
     f5a:	31 95       	neg	r19
     f5c:	21 95       	neg	r18
     f5e:	31 09       	sbc	r19, r1
     f60:	ac 01       	movw	r20, r24
     f62:	99 23       	and	r25, r25
     f64:	24 f4       	brge	.+8      	; 0xf6e <main+0x2d2>
     f66:	44 27       	eor	r20, r20
     f68:	55 27       	eor	r21, r21
     f6a:	48 1b       	sub	r20, r24
     f6c:	59 0b       	sbc	r21, r25
     f6e:	24 17       	cp	r18, r20
     f70:	35 07       	cpc	r19, r21
     f72:	24 f4       	brge	.+8      	; 0xf7c <main+0x2e0>
				MAX_Accel_Value_Z = All_Axis_ROW.Zaccel_raw;
     f74:	90 93 6a 00 	sts	0x006A, r25	; 0x80006a <MAX_Accel_Value_Z+0x1>
     f78:	80 93 69 00 	sts	0x0069, r24	; 0x800069 <MAX_Accel_Value_Z>
			}
		}
		//>>>Angle formation remained the same as in OLD version<<<
		if (Sensor_Position){
     f7c:	80 91 60 00 	lds	r24, 0x0060	; 0x800060 <__DATA_REGION_ORIGIN__>
     f80:	88 23       	and	r24, r24
     f82:	89 f0       	breq	.+34     	; 0xfa6 <main+0x30a>
			//>>Standart Z/X
			Angle_OLD = 10000 * atan( (All_Axis.F_z_accel / All_Axis.F_x_accel) );
     f84:	a5 01       	movw	r20, r10
     f86:	94 01       	movw	r18, r8
     f88:	c7 01       	movw	r24, r14
     f8a:	b6 01       	movw	r22, r12
     f8c:	ec d2       	rcall	.+1496   	; 0x1566 <__divsf3>
     f8e:	bf d2       	rcall	.+1406   	; 0x150e <atan>
     f90:	20 e0       	ldi	r18, 0x00	; 0
     f92:	30 e4       	ldi	r19, 0x40	; 64
     f94:	4c e1       	ldi	r20, 0x1C	; 28
     f96:	56 e4       	ldi	r21, 0x46	; 70
     f98:	5d d4       	rcall	.+2234   	; 0x1854 <__mulsf3>
     f9a:	4d d3       	rcall	.+1690   	; 0x1636 <__fixsfsi>
     f9c:	70 93 2b 01 	sts	0x012B, r23	; 0x80012b <Angle_OLD+0x1>
     fa0:	60 93 2a 01 	sts	0x012A, r22	; 0x80012a <Angle_OLD>
     fa4:	10 c0       	rjmp	.+32     	; 0xfc6 <main+0x32a>
		} else {
			//>>Mobile modular SB (N position) X/Z
			Angle_OLD = 10000 * atan( (-All_Axis.F_x_accel / All_Axis.F_z_accel) );
     fa6:	a7 01       	movw	r20, r14
     fa8:	96 01       	movw	r18, r12
     faa:	c3 01       	movw	r24, r6
     fac:	b2 01       	movw	r22, r4
     fae:	db d2       	rcall	.+1462   	; 0x1566 <__divsf3>
     fb0:	ae d2       	rcall	.+1372   	; 0x150e <atan>
     fb2:	20 e0       	ldi	r18, 0x00	; 0
     fb4:	30 e4       	ldi	r19, 0x40	; 64
     fb6:	4c e1       	ldi	r20, 0x1C	; 28
     fb8:	56 e4       	ldi	r21, 0x46	; 70
     fba:	4c d4       	rcall	.+2200   	; 0x1854 <__mulsf3>
     fbc:	3c d3       	rcall	.+1656   	; 0x1636 <__fixsfsi>
     fbe:	70 93 2b 01 	sts	0x012B, r23	; 0x80012b <Angle_OLD+0x1>
     fc2:	60 93 2a 01 	sts	0x012A, r22	; 0x80012a <Angle_OLD>
		}
		
		Prev_Y_angle = Y_angle;
     fc6:	80 91 73 00 	lds	r24, 0x0073	; 0x800073 <Y_angle>
     fca:	90 91 74 00 	lds	r25, 0x0074	; 0x800074 <Y_angle+0x1>
     fce:	a0 91 75 00 	lds	r26, 0x0075	; 0x800075 <Y_angle+0x2>
     fd2:	b0 91 76 00 	lds	r27, 0x0076	; 0x800076 <Y_angle+0x3>
     fd6:	80 93 6f 00 	sts	0x006F, r24	; 0x80006f <Prev_Y_angle>
     fda:	90 93 70 00 	sts	0x0070, r25	; 0x800070 <Prev_Y_angle+0x1>
     fde:	a0 93 71 00 	sts	0x0071, r26	; 0x800071 <Prev_Y_angle+0x2>
     fe2:	b0 93 72 00 	sts	0x0072, r27	; 0x800072 <Prev_Y_angle+0x3>
	//=====================================Output depending on the type END=======================================
	#ifdef DEBUG_MOD
		arduino_ploter();
	#endif
    }
     fe6:	9a ce       	rjmp	.-716    	; 0xd1c <main+0x80>

00000fe8 <MPU6050_BurstRead>:
		return _MPU_OK;
	}
	
	return _MPU_ERROR;
	
}
     fe8:	af 92       	push	r10
     fea:	bf 92       	push	r11
     fec:	cf 92       	push	r12
     fee:	df 92       	push	r13
     ff0:	ef 92       	push	r14
     ff2:	ff 92       	push	r15
     ff4:	0f 93       	push	r16
     ff6:	1f 93       	push	r17
     ff8:	8b 01       	movw	r16, r22
     ffa:	10 92 fd 00 	sts	0x00FD, r1	; 0x8000fd <g_mpu_com_resp>
     ffe:	c4 2e       	mov	r12, r20
    1000:	d1 2c       	mov	r13, r1
    1002:	e1 2c       	mov	r14, r1
    1004:	f1 2c       	mov	r15, r1
    1006:	48 2f       	mov	r20, r24
    1008:	50 e0       	ldi	r21, 0x00	; 0
    100a:	60 e0       	ldi	r22, 0x00	; 0
    100c:	70 e0       	ldi	r23, 0x00	; 0
    100e:	59 01       	movw	r10, r18
    1010:	28 e0       	ldi	r18, 0x08	; 8
    1012:	80 ed       	ldi	r24, 0xD0	; 208
    1014:	8d d9       	rcall	.-3302   	; 0x330 <I2C_Mem_Read>
    1016:	80 93 fd 00 	sts	0x00FD, r24	; 0x8000fd <g_mpu_com_resp>
    101a:	1f 91       	pop	r17
    101c:	0f 91       	pop	r16
    101e:	ff 90       	pop	r15
    1020:	ef 90       	pop	r14
    1022:	df 90       	pop	r13
    1024:	cf 90       	pop	r12
    1026:	bf 90       	pop	r11
    1028:	af 90       	pop	r10
    102a:	08 95       	ret

0000102c <MPU6050_SetParameters>:
    102c:	80 91 4d 01 	lds	r24, 0x014D	; 0x80014d <MPU6050_Config+0x4>
    1030:	81 30       	cpi	r24, 0x01	; 1
    1032:	99 f0       	breq	.+38     	; 0x105a <MPU6050_SetParameters+0x2e>
    1034:	28 f0       	brcs	.+10     	; 0x1040 <MPU6050_SetParameters+0x14>
    1036:	82 30       	cpi	r24, 0x02	; 2
    1038:	e9 f0       	breq	.+58     	; 0x1074 <MPU6050_SetParameters+0x48>
    103a:	83 30       	cpi	r24, 0x03	; 3
    103c:	41 f1       	breq	.+80     	; 0x108e <MPU6050_SetParameters+0x62>
    103e:	34 c0       	rjmp	.+104    	; 0x10a8 <MPU6050_SetParameters+0x7c>
    1040:	80 e0       	ldi	r24, 0x00	; 0
    1042:	90 e0       	ldi	r25, 0x00	; 0
    1044:	a0 e8       	ldi	r26, 0x80	; 128
    1046:	b6 e4       	ldi	r27, 0x46	; 70
    1048:	80 93 f9 00 	sts	0x00F9, r24	; 0x8000f9 <MPU6050_Parameter+0x4>
    104c:	90 93 fa 00 	sts	0x00FA, r25	; 0x8000fa <MPU6050_Parameter+0x5>
    1050:	a0 93 fb 00 	sts	0x00FB, r26	; 0x8000fb <MPU6050_Parameter+0x6>
    1054:	b0 93 fc 00 	sts	0x00FC, r27	; 0x8000fc <MPU6050_Parameter+0x7>
    1058:	33 c0       	rjmp	.+102    	; 0x10c0 <MPU6050_SetParameters+0x94>
    105a:	80 e0       	ldi	r24, 0x00	; 0
    105c:	90 e0       	ldi	r25, 0x00	; 0
    105e:	a0 e0       	ldi	r26, 0x00	; 0
    1060:	b6 e4       	ldi	r27, 0x46	; 70
    1062:	80 93 f9 00 	sts	0x00F9, r24	; 0x8000f9 <MPU6050_Parameter+0x4>
    1066:	90 93 fa 00 	sts	0x00FA, r25	; 0x8000fa <MPU6050_Parameter+0x5>
    106a:	a0 93 fb 00 	sts	0x00FB, r26	; 0x8000fb <MPU6050_Parameter+0x6>
    106e:	b0 93 fc 00 	sts	0x00FC, r27	; 0x8000fc <MPU6050_Parameter+0x7>
    1072:	26 c0       	rjmp	.+76     	; 0x10c0 <MPU6050_SetParameters+0x94>
    1074:	80 e0       	ldi	r24, 0x00	; 0
    1076:	90 e0       	ldi	r25, 0x00	; 0
    1078:	a0 e8       	ldi	r26, 0x80	; 128
    107a:	b5 e4       	ldi	r27, 0x45	; 69
    107c:	80 93 f9 00 	sts	0x00F9, r24	; 0x8000f9 <MPU6050_Parameter+0x4>
    1080:	90 93 fa 00 	sts	0x00FA, r25	; 0x8000fa <MPU6050_Parameter+0x5>
    1084:	a0 93 fb 00 	sts	0x00FB, r26	; 0x8000fb <MPU6050_Parameter+0x6>
    1088:	b0 93 fc 00 	sts	0x00FC, r27	; 0x8000fc <MPU6050_Parameter+0x7>
    108c:	19 c0       	rjmp	.+50     	; 0x10c0 <MPU6050_SetParameters+0x94>
    108e:	80 e0       	ldi	r24, 0x00	; 0
    1090:	90 e0       	ldi	r25, 0x00	; 0
    1092:	a0 e0       	ldi	r26, 0x00	; 0
    1094:	b5 e4       	ldi	r27, 0x45	; 69
    1096:	80 93 f9 00 	sts	0x00F9, r24	; 0x8000f9 <MPU6050_Parameter+0x4>
    109a:	90 93 fa 00 	sts	0x00FA, r25	; 0x8000fa <MPU6050_Parameter+0x5>
    109e:	a0 93 fb 00 	sts	0x00FB, r26	; 0x8000fb <MPU6050_Parameter+0x6>
    10a2:	b0 93 fc 00 	sts	0x00FC, r27	; 0x8000fc <MPU6050_Parameter+0x7>
    10a6:	0c c0       	rjmp	.+24     	; 0x10c0 <MPU6050_SetParameters+0x94>
    10a8:	80 e0       	ldi	r24, 0x00	; 0
    10aa:	90 e0       	ldi	r25, 0x00	; 0
    10ac:	a0 e8       	ldi	r26, 0x80	; 128
    10ae:	b6 e4       	ldi	r27, 0x46	; 70
    10b0:	80 93 f9 00 	sts	0x00F9, r24	; 0x8000f9 <MPU6050_Parameter+0x4>
    10b4:	90 93 fa 00 	sts	0x00FA, r25	; 0x8000fa <MPU6050_Parameter+0x5>
    10b8:	a0 93 fb 00 	sts	0x00FB, r26	; 0x8000fb <MPU6050_Parameter+0x6>
    10bc:	b0 93 fc 00 	sts	0x00FC, r27	; 0x8000fc <MPU6050_Parameter+0x7>
    10c0:	80 91 4c 01 	lds	r24, 0x014C	; 0x80014c <MPU6050_Config+0x3>
    10c4:	81 30       	cpi	r24, 0x01	; 1
    10c6:	99 f0       	breq	.+38     	; 0x10ee <MPU6050_SetParameters+0xc2>
    10c8:	28 f0       	brcs	.+10     	; 0x10d4 <MPU6050_SetParameters+0xa8>
    10ca:	82 30       	cpi	r24, 0x02	; 2
    10cc:	e9 f0       	breq	.+58     	; 0x1108 <MPU6050_SetParameters+0xdc>
    10ce:	83 30       	cpi	r24, 0x03	; 3
    10d0:	41 f1       	breq	.+80     	; 0x1122 <MPU6050_SetParameters+0xf6>
    10d2:	34 c0       	rjmp	.+104    	; 0x113c <MPU6050_SetParameters+0x110>
    10d4:	80 e0       	ldi	r24, 0x00	; 0
    10d6:	90 e0       	ldi	r25, 0x00	; 0
    10d8:	a3 e0       	ldi	r26, 0x03	; 3
    10da:	b3 e4       	ldi	r27, 0x43	; 67
    10dc:	80 93 f5 00 	sts	0x00F5, r24	; 0x8000f5 <MPU6050_Parameter>
    10e0:	90 93 f6 00 	sts	0x00F6, r25	; 0x8000f6 <MPU6050_Parameter+0x1>
    10e4:	a0 93 f7 00 	sts	0x00F7, r26	; 0x8000f7 <MPU6050_Parameter+0x2>
    10e8:	b0 93 f8 00 	sts	0x00F8, r27	; 0x8000f8 <MPU6050_Parameter+0x3>
    10ec:	08 95       	ret
    10ee:	80 e0       	ldi	r24, 0x00	; 0
    10f0:	90 e0       	ldi	r25, 0x00	; 0
    10f2:	a3 e8       	ldi	r26, 0x83	; 131
    10f4:	b2 e4       	ldi	r27, 0x42	; 66
    10f6:	80 93 f5 00 	sts	0x00F5, r24	; 0x8000f5 <MPU6050_Parameter>
    10fa:	90 93 f6 00 	sts	0x00F6, r25	; 0x8000f6 <MPU6050_Parameter+0x1>
    10fe:	a0 93 f7 00 	sts	0x00F7, r26	; 0x8000f7 <MPU6050_Parameter+0x2>
    1102:	b0 93 f8 00 	sts	0x00F8, r27	; 0x8000f8 <MPU6050_Parameter+0x3>
    1106:	08 95       	ret
    1108:	83 e3       	ldi	r24, 0x33	; 51
    110a:	93 e3       	ldi	r25, 0x33	; 51
    110c:	a3 e0       	ldi	r26, 0x03	; 3
    110e:	b2 e4       	ldi	r27, 0x42	; 66
    1110:	80 93 f5 00 	sts	0x00F5, r24	; 0x8000f5 <MPU6050_Parameter>
    1114:	90 93 f6 00 	sts	0x00F6, r25	; 0x8000f6 <MPU6050_Parameter+0x1>
    1118:	a0 93 f7 00 	sts	0x00F7, r26	; 0x8000f7 <MPU6050_Parameter+0x2>
    111c:	b0 93 f8 00 	sts	0x00F8, r27	; 0x8000f8 <MPU6050_Parameter+0x3>
    1120:	08 95       	ret
    1122:	83 e3       	ldi	r24, 0x33	; 51
    1124:	93 e3       	ldi	r25, 0x33	; 51
    1126:	a3 e8       	ldi	r26, 0x83	; 131
    1128:	b1 e4       	ldi	r27, 0x41	; 65
    112a:	80 93 f5 00 	sts	0x00F5, r24	; 0x8000f5 <MPU6050_Parameter>
    112e:	90 93 f6 00 	sts	0x00F6, r25	; 0x8000f6 <MPU6050_Parameter+0x1>
    1132:	a0 93 f7 00 	sts	0x00F7, r26	; 0x8000f7 <MPU6050_Parameter+0x2>
    1136:	b0 93 f8 00 	sts	0x00F8, r27	; 0x8000f8 <MPU6050_Parameter+0x3>
    113a:	08 95       	ret
    113c:	80 e0       	ldi	r24, 0x00	; 0
    113e:	90 e0       	ldi	r25, 0x00	; 0
    1140:	a3 e0       	ldi	r26, 0x03	; 3
    1142:	b3 e4       	ldi	r27, 0x43	; 67
    1144:	80 93 f5 00 	sts	0x00F5, r24	; 0x8000f5 <MPU6050_Parameter>
    1148:	90 93 f6 00 	sts	0x00F6, r25	; 0x8000f6 <MPU6050_Parameter+0x1>
    114c:	a0 93 f7 00 	sts	0x00F7, r26	; 0x8000f7 <MPU6050_Parameter+0x2>
    1150:	b0 93 f8 00 	sts	0x00F8, r27	; 0x8000f8 <MPU6050_Parameter+0x3>
    1154:	08 95       	ret

00001156 <MPU6050_IsReady>:
    1156:	ac 01       	movw	r20, r24
    1158:	65 e0       	ldi	r22, 0x05	; 5
    115a:	70 e0       	ldi	r23, 0x00	; 0
    115c:	80 ed       	ldi	r24, 0xD0	; 208
    115e:	e9 d7       	rcall	.+4050   	; 0x2132 <__TEXT_REGION_LENGTH__+0x132>
    1160:	08 95       	ret

00001162 <MPU6050_SingleWrite>:
    1162:	af 92       	push	r10
    1164:	bf 92       	push	r11
    1166:	cf 92       	push	r12
    1168:	df 92       	push	r13
    116a:	ef 92       	push	r14
    116c:	ff 92       	push	r15
    116e:	0f 93       	push	r16
    1170:	1f 93       	push	r17
    1172:	cf 93       	push	r28
    1174:	df 93       	push	r29
    1176:	1f 92       	push	r1
    1178:	cd b7       	in	r28, 0x3d	; 61
    117a:	de b7       	in	r29, 0x3e	; 62
    117c:	18 2f       	mov	r17, r24
    117e:	69 83       	std	Y+1, r22	; 0x01
    1180:	5a 01       	movw	r10, r20
    1182:	10 92 fd 00 	sts	0x00FD, r1	; 0x8000fd <g_mpu_com_resp>
    1186:	ca 01       	movw	r24, r20
    1188:	e6 df       	rcall	.-52     	; 0x1156 <MPU6050_IsReady>
    118a:	81 30       	cpi	r24, 0x01	; 1
    118c:	81 f4       	brne	.+32     	; 0x11ae <MPU6050_SingleWrite+0x4c>
    118e:	41 2f       	mov	r20, r17
    1190:	50 e0       	ldi	r21, 0x00	; 0
    1192:	60 e0       	ldi	r22, 0x00	; 0
    1194:	70 e0       	ldi	r23, 0x00	; 0
    1196:	c1 2c       	mov	r12, r1
    1198:	d1 2c       	mov	r13, r1
    119a:	76 01       	movw	r14, r12
    119c:	c3 94       	inc	r12
    119e:	8e 01       	movw	r16, r28
    11a0:	0f 5f       	subi	r16, 0xFF	; 255
    11a2:	1f 4f       	sbci	r17, 0xFF	; 255
    11a4:	28 e0       	ldi	r18, 0x08	; 8
    11a6:	80 ed       	ldi	r24, 0xD0	; 208
    11a8:	f1 d7       	rcall	.+4066   	; 0x218c <__TEXT_REGION_LENGTH__+0x18c>
    11aa:	80 93 fd 00 	sts	0x00FD, r24	; 0x8000fd <g_mpu_com_resp>
    11ae:	80 91 fd 00 	lds	r24, 0x00FD	; 0x8000fd <g_mpu_com_resp>
    11b2:	0f 90       	pop	r0
    11b4:	df 91       	pop	r29
    11b6:	cf 91       	pop	r28
    11b8:	1f 91       	pop	r17
    11ba:	0f 91       	pop	r16
    11bc:	ff 90       	pop	r15
    11be:	ef 90       	pop	r14
    11c0:	df 90       	pop	r13
    11c2:	cf 90       	pop	r12
    11c4:	bf 90       	pop	r11
    11c6:	af 90       	pop	r10
    11c8:	08 95       	ret

000011ca <MPU6050_AutoInit>:
    11ca:	af 92       	push	r10
    11cc:	bf 92       	push	r11
    11ce:	cf 92       	push	r12
    11d0:	df 92       	push	r13
    11d2:	ef 92       	push	r14
    11d4:	ff 92       	push	r15
    11d6:	0f 93       	push	r16
    11d8:	1f 93       	push	r17
    11da:	cf 93       	push	r28
    11dc:	df 93       	push	r29
    11de:	8c 01       	movw	r16, r24
    11e0:	a1 d7       	rcall	.+3906   	; 0x2124 <__TEXT_REGION_LENGTH__+0x124>
    11e2:	c9 e4       	ldi	r28, 0x49	; 73
    11e4:	d1 e0       	ldi	r29, 0x01	; 1
    11e6:	18 82       	st	Y, r1
    11e8:	1a 82       	std	Y+2, r1	; 0x02
    11ea:	1e 82       	std	Y+6, r1	; 0x06
    11ec:	19 82       	std	Y+1, r1	; 0x01
    11ee:	0f 2e       	mov	r0, r31
    11f0:	fe e4       	ldi	r31, 0x4E	; 78
    11f2:	af 2e       	mov	r10, r31
    11f4:	f1 e0       	ldi	r31, 0x01	; 1
    11f6:	bf 2e       	mov	r11, r31
    11f8:	f0 2d       	mov	r31, r0
    11fa:	f5 01       	movw	r30, r10
    11fc:	80 81       	ld	r24, Z
    11fe:	8c 7f       	andi	r24, 0xFC	; 252
    1200:	8b 7f       	andi	r24, 0xFB	; 251
    1202:	80 83       	st	Z, r24
    1204:	1b 82       	std	Y+3, r1	; 0x03
    1206:	1c 82       	std	Y+4, r1	; 0x04
    1208:	81 e0       	ldi	r24, 0x01	; 1
    120a:	8f 83       	std	Y+7, r24	; 0x07
    120c:	a8 01       	movw	r20, r16
    120e:	60 e0       	ldi	r22, 0x00	; 0
    1210:	88 e3       	ldi	r24, 0x38	; 56
    1212:	a7 df       	rcall	.-178    	; 0x1162 <MPU6050_SingleWrite>
    1214:	80 93 fd 00 	sts	0x00FD, r24	; 0x8000fd <g_mpu_com_resp>
    1218:	68 81       	ld	r22, Y
    121a:	61 50       	subi	r22, 0x01	; 1
    121c:	a8 01       	movw	r20, r16
    121e:	89 e1       	ldi	r24, 0x19	; 25
    1220:	a0 df       	rcall	.-192    	; 0x1162 <MPU6050_SingleWrite>
    1222:	90 91 fd 00 	lds	r25, 0x00FD	; 0x8000fd <g_mpu_com_resp>
    1226:	89 0f       	add	r24, r25
    1228:	80 93 fd 00 	sts	0x00FD, r24	; 0x8000fd <g_mpu_com_resp>
    122c:	6b 81       	ldd	r22, Y+3	; 0x03
    122e:	66 0f       	add	r22, r22
    1230:	66 0f       	add	r22, r22
    1232:	66 0f       	add	r22, r22
    1234:	a8 01       	movw	r20, r16
    1236:	8b e1       	ldi	r24, 0x1B	; 27
    1238:	94 df       	rcall	.-216    	; 0x1162 <MPU6050_SingleWrite>
    123a:	90 91 fd 00 	lds	r25, 0x00FD	; 0x8000fd <g_mpu_com_resp>
    123e:	89 0f       	add	r24, r25
    1240:	80 93 fd 00 	sts	0x00FD, r24	; 0x8000fd <g_mpu_com_resp>
    1244:	6c 81       	ldd	r22, Y+4	; 0x04
    1246:	66 0f       	add	r22, r22
    1248:	66 0f       	add	r22, r22
    124a:	66 0f       	add	r22, r22
    124c:	a8 01       	movw	r20, r16
    124e:	8c e1       	ldi	r24, 0x1C	; 28
    1250:	88 df       	rcall	.-240    	; 0x1162 <MPU6050_SingleWrite>
    1252:	90 91 fd 00 	lds	r25, 0x00FD	; 0x8000fd <g_mpu_com_resp>
    1256:	89 0f       	add	r24, r25
    1258:	80 93 fd 00 	sts	0x00FD, r24	; 0x8000fd <g_mpu_com_resp>
    125c:	69 81       	ldd	r22, Y+1	; 0x01
    125e:	66 0f       	add	r22, r22
    1260:	66 0f       	add	r22, r22
    1262:	66 0f       	add	r22, r22
    1264:	8a 81       	ldd	r24, Y+2	; 0x02
    1266:	68 2b       	or	r22, r24
    1268:	a8 01       	movw	r20, r16
    126a:	8a e1       	ldi	r24, 0x1A	; 26
    126c:	7a df       	rcall	.-268    	; 0x1162 <MPU6050_SingleWrite>
    126e:	90 91 fd 00 	lds	r25, 0x00FD	; 0x8000fd <g_mpu_com_resp>
    1272:	89 0f       	add	r24, r25
    1274:	80 93 fd 00 	sts	0x00FD, r24	; 0x8000fd <g_mpu_com_resp>
    1278:	f5 01       	movw	r30, r10
    127a:	80 81       	ld	r24, Z
    127c:	68 2f       	mov	r22, r24
    127e:	67 95       	ror	r22
    1280:	66 27       	eor	r22, r22
    1282:	67 95       	ror	r22
    1284:	81 fb       	bst	r24, 1
    1286:	cc 24       	eor	r12, r12
    1288:	c0 f8       	bld	r12, 0
    128a:	d1 2c       	mov	r13, r1
    128c:	00 24       	eor	r0, r0
    128e:	d6 94       	lsr	r13
    1290:	c7 94       	ror	r12
    1292:	07 94       	ror	r0
    1294:	d6 94       	lsr	r13
    1296:	c7 94       	ror	r12
    1298:	07 94       	ror	r0
    129a:	dc 2c       	mov	r13, r12
    129c:	c0 2c       	mov	r12, r0
    129e:	c6 2a       	or	r12, r22
    12a0:	82 fb       	bst	r24, 2
    12a2:	ee 24       	eor	r14, r14
    12a4:	e0 f8       	bld	r14, 0
    12a6:	f1 2c       	mov	r15, r1
    12a8:	ee 0c       	add	r14, r14
    12aa:	ff 1c       	adc	r15, r15
    12ac:	ee 0c       	add	r14, r14
    12ae:	ff 1c       	adc	r15, r15
    12b0:	ee 0c       	add	r14, r14
    12b2:	ff 1c       	adc	r15, r15
    12b4:	ee 0c       	add	r14, r14
    12b6:	ff 1c       	adc	r15, r15
    12b8:	ee 0c       	add	r14, r14
    12ba:	ff 1c       	adc	r15, r15
    12bc:	6c 2d       	mov	r22, r12
    12be:	6e 29       	or	r22, r14
    12c0:	a8 01       	movw	r20, r16
    12c2:	87 e3       	ldi	r24, 0x37	; 55
    12c4:	4e df       	rcall	.-356    	; 0x1162 <MPU6050_SingleWrite>
    12c6:	90 91 fd 00 	lds	r25, 0x00FD	; 0x8000fd <g_mpu_com_resp>
    12ca:	89 0f       	add	r24, r25
    12cc:	80 93 fd 00 	sts	0x00FD, r24	; 0x8000fd <g_mpu_com_resp>
    12d0:	a8 01       	movw	r20, r16
    12d2:	6f 81       	ldd	r22, Y+7	; 0x07
    12d4:	8b e6       	ldi	r24, 0x6B	; 107
    12d6:	45 df       	rcall	.-374    	; 0x1162 <MPU6050_SingleWrite>
    12d8:	90 91 fd 00 	lds	r25, 0x00FD	; 0x8000fd <g_mpu_com_resp>
    12dc:	89 0f       	add	r24, r25
    12de:	80 93 fd 00 	sts	0x00FD, r24	; 0x8000fd <g_mpu_com_resp>
    12e2:	87 30       	cpi	r24, 0x07	; 7
    12e4:	19 f4       	brne	.+6      	; 0x12ec <MPU6050_AutoInit+0x122>
    12e6:	a2 de       	rcall	.-700    	; 0x102c <MPU6050_SetParameters>
    12e8:	81 e0       	ldi	r24, 0x01	; 1
    12ea:	01 c0       	rjmp	.+2      	; 0x12ee <MPU6050_AutoInit+0x124>
    12ec:	80 e0       	ldi	r24, 0x00	; 0
    12ee:	df 91       	pop	r29
    12f0:	cf 91       	pop	r28
    12f2:	1f 91       	pop	r17
    12f4:	0f 91       	pop	r16
    12f6:	ff 90       	pop	r15
    12f8:	ef 90       	pop	r14
    12fa:	df 90       	pop	r13
    12fc:	cf 90       	pop	r12
    12fe:	bf 90       	pop	r11
    1300:	af 90       	pop	r10
    1302:	08 95       	ret

00001304 <MPU6050_GetRawAccel>:
    1304:	0f 93       	push	r16
    1306:	1f 93       	push	r17
    1308:	cf 93       	push	r28
    130a:	df 93       	push	r29
    130c:	00 d0       	rcall	.+0      	; 0x130e <MPU6050_GetRawAccel+0xa>
    130e:	00 d0       	rcall	.+0      	; 0x1310 <MPU6050_GetRawAccel+0xc>
    1310:	00 d0       	rcall	.+0      	; 0x1312 <MPU6050_GetRawAccel+0xe>
    1312:	cd b7       	in	r28, 0x3d	; 61
    1314:	de b7       	in	r29, 0x3e	; 62
    1316:	8c 01       	movw	r16, r24
    1318:	9b 01       	movw	r18, r22
    131a:	46 e0       	ldi	r20, 0x06	; 6
    131c:	be 01       	movw	r22, r28
    131e:	6f 5f       	subi	r22, 0xFF	; 255
    1320:	7f 4f       	sbci	r23, 0xFF	; 255
    1322:	8b e3       	ldi	r24, 0x3B	; 59
    1324:	61 de       	rcall	.-830    	; 0xfe8 <MPU6050_BurstRead>
    1326:	81 30       	cpi	r24, 0x01	; 1
    1328:	a1 f4       	brne	.+40     	; 0x1352 <MPU6050_GetRawAccel+0x4e>
    132a:	fe 01       	movw	r30, r28
    132c:	31 96       	adiw	r30, 0x01	; 1
    132e:	a8 01       	movw	r20, r16
    1330:	4a 5f       	subi	r20, 0xFA	; 250
    1332:	5f 4f       	sbci	r21, 0xFF	; 255
    1334:	20 81       	ld	r18, Z
    1336:	30 e0       	ldi	r19, 0x00	; 0
    1338:	32 2f       	mov	r19, r18
    133a:	22 27       	eor	r18, r18
    133c:	91 81       	ldd	r25, Z+1	; 0x01
    133e:	29 2b       	or	r18, r25
    1340:	d8 01       	movw	r26, r16
    1342:	2d 93       	st	X+, r18
    1344:	3d 93       	st	X+, r19
    1346:	8d 01       	movw	r16, r26
    1348:	32 96       	adiw	r30, 0x02	; 2
    134a:	4a 17       	cp	r20, r26
    134c:	5b 07       	cpc	r21, r27
    134e:	91 f7       	brne	.-28     	; 0x1334 <MPU6050_GetRawAccel+0x30>
    1350:	01 c0       	rjmp	.+2      	; 0x1354 <MPU6050_GetRawAccel+0x50>
    1352:	80 e0       	ldi	r24, 0x00	; 0
    1354:	26 96       	adiw	r28, 0x06	; 6
    1356:	0f b6       	in	r0, 0x3f	; 63
    1358:	f8 94       	cli
    135a:	de bf       	out	0x3e, r29	; 62
    135c:	0f be       	out	0x3f, r0	; 63
    135e:	cd bf       	out	0x3d, r28	; 61
    1360:	df 91       	pop	r29
    1362:	cf 91       	pop	r28
    1364:	1f 91       	pop	r17
    1366:	0f 91       	pop	r16
    1368:	08 95       	ret

0000136a <MPU6050_GetRawGyro>:
		     -> status is _MPU_OK/_MPU_ERROR
		   
*/

uint8_t MPU6050_GetRawGyro( int16_t *raw_gyro_str, uint16_t _time_out) /* Function for take Gyroscope value */
{
    136a:	0f 93       	push	r16
    136c:	1f 93       	push	r17
    136e:	cf 93       	push	r28
    1370:	df 93       	push	r29
    1372:	00 d0       	rcall	.+0      	; 0x1374 <MPU6050_GetRawGyro+0xa>
    1374:	00 d0       	rcall	.+0      	; 0x1376 <MPU6050_GetRawGyro+0xc>
    1376:	00 d0       	rcall	.+0      	; 0x1378 <MPU6050_GetRawGyro+0xe>
    1378:	cd b7       	in	r28, 0x3d	; 61
    137a:	de b7       	in	r29, 0x3e	; 62
    137c:	8c 01       	movw	r16, r24
    137e:	9b 01       	movw	r18, r22
	/* ----------- Create variable ----------- */
	uint8_t write_counter; /* Variable for count */
	uint8_t raw_gyro[_MPU_AXIS_ALL_REG_LEGTH]; /* String for take value from registers */
	
	/* ----------- Read value from MPU60X0 ----------- */
	if ( MPU6050_BurstRead(_REG_GYRO_XOUT_H, raw_gyro, _MPU_AXIS_ALL_REG_LEGTH, _time_out) == _MPU_OK ) /* The instructions are complete */
    1380:	46 e0       	ldi	r20, 0x06	; 6
    1382:	be 01       	movw	r22, r28
    1384:	6f 5f       	subi	r22, 0xFF	; 255
    1386:	7f 4f       	sbci	r23, 0xFF	; 255
    1388:	83 e4       	ldi	r24, 0x43	; 67
    138a:	2e de       	rcall	.-932    	; 0xfe8 <MPU6050_BurstRead>
    138c:	81 30       	cpi	r24, 0x01	; 1
    138e:	a1 f4       	brne	.+40     	; 0x13b8 <MPU6050_GetRawGyro+0x4e>
    1390:	fe 01       	movw	r30, r28
    1392:	31 96       	adiw	r30, 0x01	; 1
    1394:	a8 01       	movw	r20, r16
    1396:	4a 5f       	subi	r20, 0xFA	; 250
    1398:	5f 4f       	sbci	r21, 0xFF	; 255
	{
		/* --- Save Value in str --- */
		for ( write_counter = 0 ; write_counter < _MPU_AXIS_ALL_REG_LEGTH ; write_counter += _MPU_AXIS_REG_LENGTH ) /* Loop for save data to string */
		{
			
			*raw_gyro_str = ( (int16_t)raw_gyro[write_counter] << _MPU_HIGH_BYTE_SHIFT ) | (int16_t)raw_gyro[write_counter + 1]; /* Write data */
    139a:	20 81       	ld	r18, Z
    139c:	30 e0       	ldi	r19, 0x00	; 0
    139e:	32 2f       	mov	r19, r18
    13a0:	22 27       	eor	r18, r18
    13a2:	91 81       	ldd	r25, Z+1	; 0x01
    13a4:	29 2b       	or	r18, r25
    13a6:	d8 01       	movw	r26, r16
    13a8:	2d 93       	st	X+, r18
    13aa:	3d 93       	st	X+, r19
    13ac:	8d 01       	movw	r16, r26
    13ae:	32 96       	adiw	r30, 0x02	; 2
	
	/* ----------- Read value from MPU60X0 ----------- */
	if ( MPU6050_BurstRead(_REG_GYRO_XOUT_H, raw_gyro, _MPU_AXIS_ALL_REG_LEGTH, _time_out) == _MPU_OK ) /* The instructions are complete */
	{
		/* --- Save Value in str --- */
		for ( write_counter = 0 ; write_counter < _MPU_AXIS_ALL_REG_LEGTH ; write_counter += _MPU_AXIS_REG_LENGTH ) /* Loop for save data to string */
    13b0:	4a 17       	cp	r20, r26
    13b2:	5b 07       	cpc	r21, r27
    13b4:	91 f7       	brne	.-28     	; 0x139a <MPU6050_GetRawGyro+0x30>
    13b6:	01 c0       	rjmp	.+2      	; 0x13ba <MPU6050_GetRawGyro+0x50>
		
		return _MPU_OK;
		
	}
	
	return _MPU_ERROR;
    13b8:	80 e0       	ldi	r24, 0x00	; 0
	
}
    13ba:	26 96       	adiw	r28, 0x06	; 6
    13bc:	0f b6       	in	r0, 0x3f	; 63
    13be:	f8 94       	cli
    13c0:	de bf       	out	0x3e, r29	; 62
    13c2:	0f be       	out	0x3f, r0	; 63
    13c4:	cd bf       	out	0x3d, r28	; 61
    13c6:	df 91       	pop	r29
    13c8:	cf 91       	pop	r28
    13ca:	1f 91       	pop	r17
    13cc:	0f 91       	pop	r16
    13ce:	08 95       	ret

000013d0 <__subsf3>:
    13d0:	50 58       	subi	r21, 0x80	; 128

000013d2 <__addsf3>:
    13d2:	bb 27       	eor	r27, r27
    13d4:	aa 27       	eor	r26, r26
    13d6:	0e d0       	rcall	.+28     	; 0x13f4 <__addsf3x>
    13d8:	fc c1       	rjmp	.+1016   	; 0x17d2 <__fp_round>
    13da:	ed d1       	rcall	.+986    	; 0x17b6 <__fp_pscA>
    13dc:	30 f0       	brcs	.+12     	; 0x13ea <__addsf3+0x18>
    13de:	f2 d1       	rcall	.+996    	; 0x17c4 <__fp_pscB>
    13e0:	20 f0       	brcs	.+8      	; 0x13ea <__addsf3+0x18>
    13e2:	31 f4       	brne	.+12     	; 0x13f0 <__addsf3+0x1e>
    13e4:	9f 3f       	cpi	r25, 0xFF	; 255
    13e6:	11 f4       	brne	.+4      	; 0x13ec <__addsf3+0x1a>
    13e8:	1e f4       	brtc	.+6      	; 0x13f0 <__addsf3+0x1e>
    13ea:	bd c1       	rjmp	.+890    	; 0x1766 <__fp_nan>
    13ec:	0e f4       	brtc	.+2      	; 0x13f0 <__addsf3+0x1e>
    13ee:	e0 95       	com	r30
    13f0:	e7 fb       	bst	r30, 7
    13f2:	b3 c1       	rjmp	.+870    	; 0x175a <__fp_inf>

000013f4 <__addsf3x>:
    13f4:	e9 2f       	mov	r30, r25
    13f6:	fe d1       	rcall	.+1020   	; 0x17f4 <__fp_split3>
    13f8:	80 f3       	brcs	.-32     	; 0x13da <__addsf3+0x8>
    13fa:	ba 17       	cp	r27, r26
    13fc:	62 07       	cpc	r22, r18
    13fe:	73 07       	cpc	r23, r19
    1400:	84 07       	cpc	r24, r20
    1402:	95 07       	cpc	r25, r21
    1404:	18 f0       	brcs	.+6      	; 0x140c <__addsf3x+0x18>
    1406:	71 f4       	brne	.+28     	; 0x1424 <__addsf3x+0x30>
    1408:	9e f5       	brtc	.+102    	; 0x1470 <__addsf3x+0x7c>
    140a:	16 c2       	rjmp	.+1068   	; 0x1838 <__fp_zero>
    140c:	0e f4       	brtc	.+2      	; 0x1410 <__addsf3x+0x1c>
    140e:	e0 95       	com	r30
    1410:	0b 2e       	mov	r0, r27
    1412:	ba 2f       	mov	r27, r26
    1414:	a0 2d       	mov	r26, r0
    1416:	0b 01       	movw	r0, r22
    1418:	b9 01       	movw	r22, r18
    141a:	90 01       	movw	r18, r0
    141c:	0c 01       	movw	r0, r24
    141e:	ca 01       	movw	r24, r20
    1420:	a0 01       	movw	r20, r0
    1422:	11 24       	eor	r1, r1
    1424:	ff 27       	eor	r31, r31
    1426:	59 1b       	sub	r21, r25
    1428:	99 f0       	breq	.+38     	; 0x1450 <__addsf3x+0x5c>
    142a:	59 3f       	cpi	r21, 0xF9	; 249
    142c:	50 f4       	brcc	.+20     	; 0x1442 <__addsf3x+0x4e>
    142e:	50 3e       	cpi	r21, 0xE0	; 224
    1430:	68 f1       	brcs	.+90     	; 0x148c <__addsf3x+0x98>
    1432:	1a 16       	cp	r1, r26
    1434:	f0 40       	sbci	r31, 0x00	; 0
    1436:	a2 2f       	mov	r26, r18
    1438:	23 2f       	mov	r18, r19
    143a:	34 2f       	mov	r19, r20
    143c:	44 27       	eor	r20, r20
    143e:	58 5f       	subi	r21, 0xF8	; 248
    1440:	f3 cf       	rjmp	.-26     	; 0x1428 <__addsf3x+0x34>
    1442:	46 95       	lsr	r20
    1444:	37 95       	ror	r19
    1446:	27 95       	ror	r18
    1448:	a7 95       	ror	r26
    144a:	f0 40       	sbci	r31, 0x00	; 0
    144c:	53 95       	inc	r21
    144e:	c9 f7       	brne	.-14     	; 0x1442 <__addsf3x+0x4e>
    1450:	7e f4       	brtc	.+30     	; 0x1470 <__addsf3x+0x7c>
    1452:	1f 16       	cp	r1, r31
    1454:	ba 0b       	sbc	r27, r26
    1456:	62 0b       	sbc	r22, r18
    1458:	73 0b       	sbc	r23, r19
    145a:	84 0b       	sbc	r24, r20
    145c:	ba f0       	brmi	.+46     	; 0x148c <__addsf3x+0x98>
    145e:	91 50       	subi	r25, 0x01	; 1
    1460:	a1 f0       	breq	.+40     	; 0x148a <__addsf3x+0x96>
    1462:	ff 0f       	add	r31, r31
    1464:	bb 1f       	adc	r27, r27
    1466:	66 1f       	adc	r22, r22
    1468:	77 1f       	adc	r23, r23
    146a:	88 1f       	adc	r24, r24
    146c:	c2 f7       	brpl	.-16     	; 0x145e <__addsf3x+0x6a>
    146e:	0e c0       	rjmp	.+28     	; 0x148c <__addsf3x+0x98>
    1470:	ba 0f       	add	r27, r26
    1472:	62 1f       	adc	r22, r18
    1474:	73 1f       	adc	r23, r19
    1476:	84 1f       	adc	r24, r20
    1478:	48 f4       	brcc	.+18     	; 0x148c <__addsf3x+0x98>
    147a:	87 95       	ror	r24
    147c:	77 95       	ror	r23
    147e:	67 95       	ror	r22
    1480:	b7 95       	ror	r27
    1482:	f7 95       	ror	r31
    1484:	9e 3f       	cpi	r25, 0xFE	; 254
    1486:	08 f0       	brcs	.+2      	; 0x148a <__addsf3x+0x96>
    1488:	b3 cf       	rjmp	.-154    	; 0x13f0 <__addsf3+0x1e>
    148a:	93 95       	inc	r25
    148c:	88 0f       	add	r24, r24
    148e:	08 f0       	brcs	.+2      	; 0x1492 <__addsf3x+0x9e>
    1490:	99 27       	eor	r25, r25
    1492:	ee 0f       	add	r30, r30
    1494:	97 95       	ror	r25
    1496:	87 95       	ror	r24
    1498:	08 95       	ret
    149a:	8d d1       	rcall	.+794    	; 0x17b6 <__fp_pscA>
    149c:	58 f0       	brcs	.+22     	; 0x14b4 <__addsf3x+0xc0>
    149e:	80 e8       	ldi	r24, 0x80	; 128
    14a0:	91 e0       	ldi	r25, 0x01	; 1
    14a2:	09 f4       	brne	.+2      	; 0x14a6 <__addsf3x+0xb2>
    14a4:	9e ef       	ldi	r25, 0xFE	; 254
    14a6:	8e d1       	rcall	.+796    	; 0x17c4 <__fp_pscB>
    14a8:	28 f0       	brcs	.+10     	; 0x14b4 <__addsf3x+0xc0>
    14aa:	40 e8       	ldi	r20, 0x80	; 128
    14ac:	51 e0       	ldi	r21, 0x01	; 1
    14ae:	59 f4       	brne	.+22     	; 0x14c6 <atan2+0xe>
    14b0:	5e ef       	ldi	r21, 0xFE	; 254
    14b2:	09 c0       	rjmp	.+18     	; 0x14c6 <atan2+0xe>
    14b4:	58 c1       	rjmp	.+688    	; 0x1766 <__fp_nan>
    14b6:	c0 c1       	rjmp	.+896    	; 0x1838 <__fp_zero>

000014b8 <atan2>:
    14b8:	e9 2f       	mov	r30, r25
    14ba:	e0 78       	andi	r30, 0x80	; 128
    14bc:	9b d1       	rcall	.+822    	; 0x17f4 <__fp_split3>
    14be:	68 f3       	brcs	.-38     	; 0x149a <__addsf3x+0xa6>
    14c0:	09 2e       	mov	r0, r25
    14c2:	05 2a       	or	r0, r21
    14c4:	c1 f3       	breq	.-16     	; 0x14b6 <__addsf3x+0xc2>
    14c6:	26 17       	cp	r18, r22
    14c8:	37 07       	cpc	r19, r23
    14ca:	48 07       	cpc	r20, r24
    14cc:	59 07       	cpc	r21, r25
    14ce:	38 f0       	brcs	.+14     	; 0x14de <atan2+0x26>
    14d0:	0e 2e       	mov	r0, r30
    14d2:	07 f8       	bld	r0, 7
    14d4:	e0 25       	eor	r30, r0
    14d6:	69 f0       	breq	.+26     	; 0x14f2 <atan2+0x3a>
    14d8:	e0 25       	eor	r30, r0
    14da:	e0 64       	ori	r30, 0x40	; 64
    14dc:	0a c0       	rjmp	.+20     	; 0x14f2 <atan2+0x3a>
    14de:	ef 63       	ori	r30, 0x3F	; 63
    14e0:	07 f8       	bld	r0, 7
    14e2:	00 94       	com	r0
    14e4:	07 fa       	bst	r0, 7
    14e6:	db 01       	movw	r26, r22
    14e8:	b9 01       	movw	r22, r18
    14ea:	9d 01       	movw	r18, r26
    14ec:	dc 01       	movw	r26, r24
    14ee:	ca 01       	movw	r24, r20
    14f0:	ad 01       	movw	r20, r26
    14f2:	ef 93       	push	r30
    14f4:	47 d0       	rcall	.+142    	; 0x1584 <__divsf3_pse>
    14f6:	6d d1       	rcall	.+730    	; 0x17d2 <__fp_round>
    14f8:	0a d0       	rcall	.+20     	; 0x150e <atan>
    14fa:	5f 91       	pop	r21
    14fc:	55 23       	and	r21, r21
    14fe:	31 f0       	breq	.+12     	; 0x150c <atan2+0x54>
    1500:	2b ed       	ldi	r18, 0xDB	; 219
    1502:	3f e0       	ldi	r19, 0x0F	; 15
    1504:	49 e4       	ldi	r20, 0x49	; 73
    1506:	50 fd       	sbrc	r21, 0
    1508:	49 ec       	ldi	r20, 0xC9	; 201
    150a:	63 cf       	rjmp	.-314    	; 0x13d2 <__addsf3>
    150c:	08 95       	ret

0000150e <atan>:
    150e:	df 93       	push	r29
    1510:	dd 27       	eor	r29, r29
    1512:	b9 2f       	mov	r27, r25
    1514:	bf 77       	andi	r27, 0x7F	; 127
    1516:	40 e8       	ldi	r20, 0x80	; 128
    1518:	5f e3       	ldi	r21, 0x3F	; 63
    151a:	16 16       	cp	r1, r22
    151c:	17 06       	cpc	r1, r23
    151e:	48 07       	cpc	r20, r24
    1520:	5b 07       	cpc	r21, r27
    1522:	10 f4       	brcc	.+4      	; 0x1528 <atan+0x1a>
    1524:	d9 2f       	mov	r29, r25
    1526:	8f d1       	rcall	.+798    	; 0x1846 <inverse>
    1528:	9f 93       	push	r25
    152a:	8f 93       	push	r24
    152c:	7f 93       	push	r23
    152e:	6f 93       	push	r22
    1530:	f4 d1       	rcall	.+1000   	; 0x191a <square>
    1532:	e6 e2       	ldi	r30, 0x26	; 38
    1534:	f0 e0       	ldi	r31, 0x00	; 0
    1536:	1a d1       	rcall	.+564    	; 0x176c <__fp_powser>
    1538:	4c d1       	rcall	.+664    	; 0x17d2 <__fp_round>
    153a:	2f 91       	pop	r18
    153c:	3f 91       	pop	r19
    153e:	4f 91       	pop	r20
    1540:	5f 91       	pop	r21
    1542:	94 d1       	rcall	.+808    	; 0x186c <__mulsf3x>
    1544:	dd 23       	and	r29, r29
    1546:	49 f0       	breq	.+18     	; 0x155a <atan+0x4c>
    1548:	90 58       	subi	r25, 0x80	; 128
    154a:	a2 ea       	ldi	r26, 0xA2	; 162
    154c:	2a ed       	ldi	r18, 0xDA	; 218
    154e:	3f e0       	ldi	r19, 0x0F	; 15
    1550:	49 ec       	ldi	r20, 0xC9	; 201
    1552:	5f e3       	ldi	r21, 0x3F	; 63
    1554:	d0 78       	andi	r29, 0x80	; 128
    1556:	5d 27       	eor	r21, r29
    1558:	4d df       	rcall	.-358    	; 0x13f4 <__addsf3x>
    155a:	df 91       	pop	r29
    155c:	3a c1       	rjmp	.+628    	; 0x17d2 <__fp_round>

0000155e <__cmpsf2>:
    155e:	d9 d0       	rcall	.+434    	; 0x1712 <__fp_cmp>
    1560:	08 f4       	brcc	.+2      	; 0x1564 <__cmpsf2+0x6>
    1562:	81 e0       	ldi	r24, 0x01	; 1
    1564:	08 95       	ret

00001566 <__divsf3>:
    1566:	0c d0       	rcall	.+24     	; 0x1580 <__divsf3x>
    1568:	34 c1       	rjmp	.+616    	; 0x17d2 <__fp_round>
    156a:	2c d1       	rcall	.+600    	; 0x17c4 <__fp_pscB>
    156c:	40 f0       	brcs	.+16     	; 0x157e <__divsf3+0x18>
    156e:	23 d1       	rcall	.+582    	; 0x17b6 <__fp_pscA>
    1570:	30 f0       	brcs	.+12     	; 0x157e <__divsf3+0x18>
    1572:	21 f4       	brne	.+8      	; 0x157c <__divsf3+0x16>
    1574:	5f 3f       	cpi	r21, 0xFF	; 255
    1576:	19 f0       	breq	.+6      	; 0x157e <__divsf3+0x18>
    1578:	f0 c0       	rjmp	.+480    	; 0x175a <__fp_inf>
    157a:	51 11       	cpse	r21, r1
    157c:	5e c1       	rjmp	.+700    	; 0x183a <__fp_szero>
    157e:	f3 c0       	rjmp	.+486    	; 0x1766 <__fp_nan>

00001580 <__divsf3x>:
    1580:	39 d1       	rcall	.+626    	; 0x17f4 <__fp_split3>
    1582:	98 f3       	brcs	.-26     	; 0x156a <__divsf3+0x4>

00001584 <__divsf3_pse>:
    1584:	99 23       	and	r25, r25
    1586:	c9 f3       	breq	.-14     	; 0x157a <__divsf3+0x14>
    1588:	55 23       	and	r21, r21
    158a:	b1 f3       	breq	.-20     	; 0x1578 <__divsf3+0x12>
    158c:	95 1b       	sub	r25, r21
    158e:	55 0b       	sbc	r21, r21
    1590:	bb 27       	eor	r27, r27
    1592:	aa 27       	eor	r26, r26
    1594:	62 17       	cp	r22, r18
    1596:	73 07       	cpc	r23, r19
    1598:	84 07       	cpc	r24, r20
    159a:	38 f0       	brcs	.+14     	; 0x15aa <__divsf3_pse+0x26>
    159c:	9f 5f       	subi	r25, 0xFF	; 255
    159e:	5f 4f       	sbci	r21, 0xFF	; 255
    15a0:	22 0f       	add	r18, r18
    15a2:	33 1f       	adc	r19, r19
    15a4:	44 1f       	adc	r20, r20
    15a6:	aa 1f       	adc	r26, r26
    15a8:	a9 f3       	breq	.-22     	; 0x1594 <__divsf3_pse+0x10>
    15aa:	33 d0       	rcall	.+102    	; 0x1612 <__divsf3_pse+0x8e>
    15ac:	0e 2e       	mov	r0, r30
    15ae:	3a f0       	brmi	.+14     	; 0x15be <__divsf3_pse+0x3a>
    15b0:	e0 e8       	ldi	r30, 0x80	; 128
    15b2:	30 d0       	rcall	.+96     	; 0x1614 <__divsf3_pse+0x90>
    15b4:	91 50       	subi	r25, 0x01	; 1
    15b6:	50 40       	sbci	r21, 0x00	; 0
    15b8:	e6 95       	lsr	r30
    15ba:	00 1c       	adc	r0, r0
    15bc:	ca f7       	brpl	.-14     	; 0x15b0 <__divsf3_pse+0x2c>
    15be:	29 d0       	rcall	.+82     	; 0x1612 <__divsf3_pse+0x8e>
    15c0:	fe 2f       	mov	r31, r30
    15c2:	27 d0       	rcall	.+78     	; 0x1612 <__divsf3_pse+0x8e>
    15c4:	66 0f       	add	r22, r22
    15c6:	77 1f       	adc	r23, r23
    15c8:	88 1f       	adc	r24, r24
    15ca:	bb 1f       	adc	r27, r27
    15cc:	26 17       	cp	r18, r22
    15ce:	37 07       	cpc	r19, r23
    15d0:	48 07       	cpc	r20, r24
    15d2:	ab 07       	cpc	r26, r27
    15d4:	b0 e8       	ldi	r27, 0x80	; 128
    15d6:	09 f0       	breq	.+2      	; 0x15da <__divsf3_pse+0x56>
    15d8:	bb 0b       	sbc	r27, r27
    15da:	80 2d       	mov	r24, r0
    15dc:	bf 01       	movw	r22, r30
    15de:	ff 27       	eor	r31, r31
    15e0:	93 58       	subi	r25, 0x83	; 131
    15e2:	5f 4f       	sbci	r21, 0xFF	; 255
    15e4:	2a f0       	brmi	.+10     	; 0x15f0 <__divsf3_pse+0x6c>
    15e6:	9e 3f       	cpi	r25, 0xFE	; 254
    15e8:	51 05       	cpc	r21, r1
    15ea:	68 f0       	brcs	.+26     	; 0x1606 <__divsf3_pse+0x82>
    15ec:	b6 c0       	rjmp	.+364    	; 0x175a <__fp_inf>
    15ee:	25 c1       	rjmp	.+586    	; 0x183a <__fp_szero>
    15f0:	5f 3f       	cpi	r21, 0xFF	; 255
    15f2:	ec f3       	brlt	.-6      	; 0x15ee <__divsf3_pse+0x6a>
    15f4:	98 3e       	cpi	r25, 0xE8	; 232
    15f6:	dc f3       	brlt	.-10     	; 0x15ee <__divsf3_pse+0x6a>
    15f8:	86 95       	lsr	r24
    15fa:	77 95       	ror	r23
    15fc:	67 95       	ror	r22
    15fe:	b7 95       	ror	r27
    1600:	f7 95       	ror	r31
    1602:	9f 5f       	subi	r25, 0xFF	; 255
    1604:	c9 f7       	brne	.-14     	; 0x15f8 <__divsf3_pse+0x74>
    1606:	88 0f       	add	r24, r24
    1608:	91 1d       	adc	r25, r1
    160a:	96 95       	lsr	r25
    160c:	87 95       	ror	r24
    160e:	97 f9       	bld	r25, 7
    1610:	08 95       	ret
    1612:	e1 e0       	ldi	r30, 0x01	; 1
    1614:	66 0f       	add	r22, r22
    1616:	77 1f       	adc	r23, r23
    1618:	88 1f       	adc	r24, r24
    161a:	bb 1f       	adc	r27, r27
    161c:	62 17       	cp	r22, r18
    161e:	73 07       	cpc	r23, r19
    1620:	84 07       	cpc	r24, r20
    1622:	ba 07       	cpc	r27, r26
    1624:	20 f0       	brcs	.+8      	; 0x162e <__divsf3_pse+0xaa>
    1626:	62 1b       	sub	r22, r18
    1628:	73 0b       	sbc	r23, r19
    162a:	84 0b       	sbc	r24, r20
    162c:	ba 0b       	sbc	r27, r26
    162e:	ee 1f       	adc	r30, r30
    1630:	88 f7       	brcc	.-30     	; 0x1614 <__divsf3_pse+0x90>
    1632:	e0 95       	com	r30
    1634:	08 95       	ret

00001636 <__fixsfsi>:
    1636:	04 d0       	rcall	.+8      	; 0x1640 <__fixunssfsi>
    1638:	68 94       	set
    163a:	b1 11       	cpse	r27, r1
    163c:	fe c0       	rjmp	.+508    	; 0x183a <__fp_szero>
    163e:	08 95       	ret

00001640 <__fixunssfsi>:
    1640:	e1 d0       	rcall	.+450    	; 0x1804 <__fp_splitA>
    1642:	88 f0       	brcs	.+34     	; 0x1666 <__fixunssfsi+0x26>
    1644:	9f 57       	subi	r25, 0x7F	; 127
    1646:	90 f0       	brcs	.+36     	; 0x166c <__fixunssfsi+0x2c>
    1648:	b9 2f       	mov	r27, r25
    164a:	99 27       	eor	r25, r25
    164c:	b7 51       	subi	r27, 0x17	; 23
    164e:	a0 f0       	brcs	.+40     	; 0x1678 <__fixunssfsi+0x38>
    1650:	d1 f0       	breq	.+52     	; 0x1686 <__fixunssfsi+0x46>
    1652:	66 0f       	add	r22, r22
    1654:	77 1f       	adc	r23, r23
    1656:	88 1f       	adc	r24, r24
    1658:	99 1f       	adc	r25, r25
    165a:	1a f0       	brmi	.+6      	; 0x1662 <__fixunssfsi+0x22>
    165c:	ba 95       	dec	r27
    165e:	c9 f7       	brne	.-14     	; 0x1652 <__fixunssfsi+0x12>
    1660:	12 c0       	rjmp	.+36     	; 0x1686 <__fixunssfsi+0x46>
    1662:	b1 30       	cpi	r27, 0x01	; 1
    1664:	81 f0       	breq	.+32     	; 0x1686 <__fixunssfsi+0x46>
    1666:	e8 d0       	rcall	.+464    	; 0x1838 <__fp_zero>
    1668:	b1 e0       	ldi	r27, 0x01	; 1
    166a:	08 95       	ret
    166c:	e5 c0       	rjmp	.+458    	; 0x1838 <__fp_zero>
    166e:	67 2f       	mov	r22, r23
    1670:	78 2f       	mov	r23, r24
    1672:	88 27       	eor	r24, r24
    1674:	b8 5f       	subi	r27, 0xF8	; 248
    1676:	39 f0       	breq	.+14     	; 0x1686 <__fixunssfsi+0x46>
    1678:	b9 3f       	cpi	r27, 0xF9	; 249
    167a:	cc f3       	brlt	.-14     	; 0x166e <__fixunssfsi+0x2e>
    167c:	86 95       	lsr	r24
    167e:	77 95       	ror	r23
    1680:	67 95       	ror	r22
    1682:	b3 95       	inc	r27
    1684:	d9 f7       	brne	.-10     	; 0x167c <__fixunssfsi+0x3c>
    1686:	3e f4       	brtc	.+14     	; 0x1696 <__fixunssfsi+0x56>
    1688:	90 95       	com	r25
    168a:	80 95       	com	r24
    168c:	70 95       	com	r23
    168e:	61 95       	neg	r22
    1690:	7f 4f       	sbci	r23, 0xFF	; 255
    1692:	8f 4f       	sbci	r24, 0xFF	; 255
    1694:	9f 4f       	sbci	r25, 0xFF	; 255
    1696:	08 95       	ret

00001698 <__floatunsisf>:
    1698:	e8 94       	clt
    169a:	09 c0       	rjmp	.+18     	; 0x16ae <__floatsisf+0x12>

0000169c <__floatsisf>:
    169c:	97 fb       	bst	r25, 7
    169e:	3e f4       	brtc	.+14     	; 0x16ae <__floatsisf+0x12>
    16a0:	90 95       	com	r25
    16a2:	80 95       	com	r24
    16a4:	70 95       	com	r23
    16a6:	61 95       	neg	r22
    16a8:	7f 4f       	sbci	r23, 0xFF	; 255
    16aa:	8f 4f       	sbci	r24, 0xFF	; 255
    16ac:	9f 4f       	sbci	r25, 0xFF	; 255
    16ae:	99 23       	and	r25, r25
    16b0:	a9 f0       	breq	.+42     	; 0x16dc <__floatsisf+0x40>
    16b2:	f9 2f       	mov	r31, r25
    16b4:	96 e9       	ldi	r25, 0x96	; 150
    16b6:	bb 27       	eor	r27, r27
    16b8:	93 95       	inc	r25
    16ba:	f6 95       	lsr	r31
    16bc:	87 95       	ror	r24
    16be:	77 95       	ror	r23
    16c0:	67 95       	ror	r22
    16c2:	b7 95       	ror	r27
    16c4:	f1 11       	cpse	r31, r1
    16c6:	f8 cf       	rjmp	.-16     	; 0x16b8 <__floatsisf+0x1c>
    16c8:	fa f4       	brpl	.+62     	; 0x1708 <__floatsisf+0x6c>
    16ca:	bb 0f       	add	r27, r27
    16cc:	11 f4       	brne	.+4      	; 0x16d2 <__floatsisf+0x36>
    16ce:	60 ff       	sbrs	r22, 0
    16d0:	1b c0       	rjmp	.+54     	; 0x1708 <__floatsisf+0x6c>
    16d2:	6f 5f       	subi	r22, 0xFF	; 255
    16d4:	7f 4f       	sbci	r23, 0xFF	; 255
    16d6:	8f 4f       	sbci	r24, 0xFF	; 255
    16d8:	9f 4f       	sbci	r25, 0xFF	; 255
    16da:	16 c0       	rjmp	.+44     	; 0x1708 <__floatsisf+0x6c>
    16dc:	88 23       	and	r24, r24
    16de:	11 f0       	breq	.+4      	; 0x16e4 <__floatsisf+0x48>
    16e0:	96 e9       	ldi	r25, 0x96	; 150
    16e2:	11 c0       	rjmp	.+34     	; 0x1706 <__floatsisf+0x6a>
    16e4:	77 23       	and	r23, r23
    16e6:	21 f0       	breq	.+8      	; 0x16f0 <__floatsisf+0x54>
    16e8:	9e e8       	ldi	r25, 0x8E	; 142
    16ea:	87 2f       	mov	r24, r23
    16ec:	76 2f       	mov	r23, r22
    16ee:	05 c0       	rjmp	.+10     	; 0x16fa <__floatsisf+0x5e>
    16f0:	66 23       	and	r22, r22
    16f2:	71 f0       	breq	.+28     	; 0x1710 <__floatsisf+0x74>
    16f4:	96 e8       	ldi	r25, 0x86	; 134
    16f6:	86 2f       	mov	r24, r22
    16f8:	70 e0       	ldi	r23, 0x00	; 0
    16fa:	60 e0       	ldi	r22, 0x00	; 0
    16fc:	2a f0       	brmi	.+10     	; 0x1708 <__floatsisf+0x6c>
    16fe:	9a 95       	dec	r25
    1700:	66 0f       	add	r22, r22
    1702:	77 1f       	adc	r23, r23
    1704:	88 1f       	adc	r24, r24
    1706:	da f7       	brpl	.-10     	; 0x16fe <__floatsisf+0x62>
    1708:	88 0f       	add	r24, r24
    170a:	96 95       	lsr	r25
    170c:	87 95       	ror	r24
    170e:	97 f9       	bld	r25, 7
    1710:	08 95       	ret

00001712 <__fp_cmp>:
    1712:	99 0f       	add	r25, r25
    1714:	00 08       	sbc	r0, r0
    1716:	55 0f       	add	r21, r21
    1718:	aa 0b       	sbc	r26, r26
    171a:	e0 e8       	ldi	r30, 0x80	; 128
    171c:	fe ef       	ldi	r31, 0xFE	; 254
    171e:	16 16       	cp	r1, r22
    1720:	17 06       	cpc	r1, r23
    1722:	e8 07       	cpc	r30, r24
    1724:	f9 07       	cpc	r31, r25
    1726:	c0 f0       	brcs	.+48     	; 0x1758 <__fp_cmp+0x46>
    1728:	12 16       	cp	r1, r18
    172a:	13 06       	cpc	r1, r19
    172c:	e4 07       	cpc	r30, r20
    172e:	f5 07       	cpc	r31, r21
    1730:	98 f0       	brcs	.+38     	; 0x1758 <__fp_cmp+0x46>
    1732:	62 1b       	sub	r22, r18
    1734:	73 0b       	sbc	r23, r19
    1736:	84 0b       	sbc	r24, r20
    1738:	95 0b       	sbc	r25, r21
    173a:	39 f4       	brne	.+14     	; 0x174a <__fp_cmp+0x38>
    173c:	0a 26       	eor	r0, r26
    173e:	61 f0       	breq	.+24     	; 0x1758 <__fp_cmp+0x46>
    1740:	23 2b       	or	r18, r19
    1742:	24 2b       	or	r18, r20
    1744:	25 2b       	or	r18, r21
    1746:	21 f4       	brne	.+8      	; 0x1750 <__fp_cmp+0x3e>
    1748:	08 95       	ret
    174a:	0a 26       	eor	r0, r26
    174c:	09 f4       	brne	.+2      	; 0x1750 <__fp_cmp+0x3e>
    174e:	a1 40       	sbci	r26, 0x01	; 1
    1750:	a6 95       	lsr	r26
    1752:	8f ef       	ldi	r24, 0xFF	; 255
    1754:	81 1d       	adc	r24, r1
    1756:	81 1d       	adc	r24, r1
    1758:	08 95       	ret

0000175a <__fp_inf>:
    175a:	97 f9       	bld	r25, 7
    175c:	9f 67       	ori	r25, 0x7F	; 127
    175e:	80 e8       	ldi	r24, 0x80	; 128
    1760:	70 e0       	ldi	r23, 0x00	; 0
    1762:	60 e0       	ldi	r22, 0x00	; 0
    1764:	08 95       	ret

00001766 <__fp_nan>:
    1766:	9f ef       	ldi	r25, 0xFF	; 255
    1768:	80 ec       	ldi	r24, 0xC0	; 192
    176a:	08 95       	ret

0000176c <__fp_powser>:
    176c:	df 93       	push	r29
    176e:	cf 93       	push	r28
    1770:	1f 93       	push	r17
    1772:	0f 93       	push	r16
    1774:	ff 92       	push	r15
    1776:	ef 92       	push	r14
    1778:	df 92       	push	r13
    177a:	7b 01       	movw	r14, r22
    177c:	8c 01       	movw	r16, r24
    177e:	68 94       	set
    1780:	05 c0       	rjmp	.+10     	; 0x178c <__fp_powser+0x20>
    1782:	da 2e       	mov	r13, r26
    1784:	ef 01       	movw	r28, r30
    1786:	72 d0       	rcall	.+228    	; 0x186c <__mulsf3x>
    1788:	fe 01       	movw	r30, r28
    178a:	e8 94       	clt
    178c:	a5 91       	lpm	r26, Z+
    178e:	25 91       	lpm	r18, Z+
    1790:	35 91       	lpm	r19, Z+
    1792:	45 91       	lpm	r20, Z+
    1794:	55 91       	lpm	r21, Z+
    1796:	ae f3       	brts	.-22     	; 0x1782 <__fp_powser+0x16>
    1798:	ef 01       	movw	r28, r30
    179a:	2c de       	rcall	.-936    	; 0x13f4 <__addsf3x>
    179c:	fe 01       	movw	r30, r28
    179e:	97 01       	movw	r18, r14
    17a0:	a8 01       	movw	r20, r16
    17a2:	da 94       	dec	r13
    17a4:	79 f7       	brne	.-34     	; 0x1784 <__fp_powser+0x18>
    17a6:	df 90       	pop	r13
    17a8:	ef 90       	pop	r14
    17aa:	ff 90       	pop	r15
    17ac:	0f 91       	pop	r16
    17ae:	1f 91       	pop	r17
    17b0:	cf 91       	pop	r28
    17b2:	df 91       	pop	r29
    17b4:	08 95       	ret

000017b6 <__fp_pscA>:
    17b6:	00 24       	eor	r0, r0
    17b8:	0a 94       	dec	r0
    17ba:	16 16       	cp	r1, r22
    17bc:	17 06       	cpc	r1, r23
    17be:	18 06       	cpc	r1, r24
    17c0:	09 06       	cpc	r0, r25
    17c2:	08 95       	ret

000017c4 <__fp_pscB>:
    17c4:	00 24       	eor	r0, r0
    17c6:	0a 94       	dec	r0
    17c8:	12 16       	cp	r1, r18
    17ca:	13 06       	cpc	r1, r19
    17cc:	14 06       	cpc	r1, r20
    17ce:	05 06       	cpc	r0, r21
    17d0:	08 95       	ret

000017d2 <__fp_round>:
    17d2:	09 2e       	mov	r0, r25
    17d4:	03 94       	inc	r0
    17d6:	00 0c       	add	r0, r0
    17d8:	11 f4       	brne	.+4      	; 0x17de <__fp_round+0xc>
    17da:	88 23       	and	r24, r24
    17dc:	52 f0       	brmi	.+20     	; 0x17f2 <__fp_round+0x20>
    17de:	bb 0f       	add	r27, r27
    17e0:	40 f4       	brcc	.+16     	; 0x17f2 <__fp_round+0x20>
    17e2:	bf 2b       	or	r27, r31
    17e4:	11 f4       	brne	.+4      	; 0x17ea <__fp_round+0x18>
    17e6:	60 ff       	sbrs	r22, 0
    17e8:	04 c0       	rjmp	.+8      	; 0x17f2 <__fp_round+0x20>
    17ea:	6f 5f       	subi	r22, 0xFF	; 255
    17ec:	7f 4f       	sbci	r23, 0xFF	; 255
    17ee:	8f 4f       	sbci	r24, 0xFF	; 255
    17f0:	9f 4f       	sbci	r25, 0xFF	; 255
    17f2:	08 95       	ret

000017f4 <__fp_split3>:
    17f4:	57 fd       	sbrc	r21, 7
    17f6:	90 58       	subi	r25, 0x80	; 128
    17f8:	44 0f       	add	r20, r20
    17fa:	55 1f       	adc	r21, r21
    17fc:	59 f0       	breq	.+22     	; 0x1814 <__fp_splitA+0x10>
    17fe:	5f 3f       	cpi	r21, 0xFF	; 255
    1800:	71 f0       	breq	.+28     	; 0x181e <__fp_splitA+0x1a>
    1802:	47 95       	ror	r20

00001804 <__fp_splitA>:
    1804:	88 0f       	add	r24, r24
    1806:	97 fb       	bst	r25, 7
    1808:	99 1f       	adc	r25, r25
    180a:	61 f0       	breq	.+24     	; 0x1824 <__fp_splitA+0x20>
    180c:	9f 3f       	cpi	r25, 0xFF	; 255
    180e:	79 f0       	breq	.+30     	; 0x182e <__fp_splitA+0x2a>
    1810:	87 95       	ror	r24
    1812:	08 95       	ret
    1814:	12 16       	cp	r1, r18
    1816:	13 06       	cpc	r1, r19
    1818:	14 06       	cpc	r1, r20
    181a:	55 1f       	adc	r21, r21
    181c:	f2 cf       	rjmp	.-28     	; 0x1802 <__fp_split3+0xe>
    181e:	46 95       	lsr	r20
    1820:	f1 df       	rcall	.-30     	; 0x1804 <__fp_splitA>
    1822:	08 c0       	rjmp	.+16     	; 0x1834 <__fp_splitA+0x30>
    1824:	16 16       	cp	r1, r22
    1826:	17 06       	cpc	r1, r23
    1828:	18 06       	cpc	r1, r24
    182a:	99 1f       	adc	r25, r25
    182c:	f1 cf       	rjmp	.-30     	; 0x1810 <__fp_splitA+0xc>
    182e:	86 95       	lsr	r24
    1830:	71 05       	cpc	r23, r1
    1832:	61 05       	cpc	r22, r1
    1834:	08 94       	sec
    1836:	08 95       	ret

00001838 <__fp_zero>:
    1838:	e8 94       	clt

0000183a <__fp_szero>:
    183a:	bb 27       	eor	r27, r27
    183c:	66 27       	eor	r22, r22
    183e:	77 27       	eor	r23, r23
    1840:	cb 01       	movw	r24, r22
    1842:	97 f9       	bld	r25, 7
    1844:	08 95       	ret

00001846 <inverse>:
    1846:	9b 01       	movw	r18, r22
    1848:	ac 01       	movw	r20, r24
    184a:	60 e0       	ldi	r22, 0x00	; 0
    184c:	70 e0       	ldi	r23, 0x00	; 0
    184e:	80 e8       	ldi	r24, 0x80	; 128
    1850:	9f e3       	ldi	r25, 0x3F	; 63
    1852:	89 ce       	rjmp	.-750    	; 0x1566 <__divsf3>

00001854 <__mulsf3>:
    1854:	0b d0       	rcall	.+22     	; 0x186c <__mulsf3x>
    1856:	bd cf       	rjmp	.-134    	; 0x17d2 <__fp_round>
    1858:	ae df       	rcall	.-164    	; 0x17b6 <__fp_pscA>
    185a:	28 f0       	brcs	.+10     	; 0x1866 <__mulsf3+0x12>
    185c:	b3 df       	rcall	.-154    	; 0x17c4 <__fp_pscB>
    185e:	18 f0       	brcs	.+6      	; 0x1866 <__mulsf3+0x12>
    1860:	95 23       	and	r25, r21
    1862:	09 f0       	breq	.+2      	; 0x1866 <__mulsf3+0x12>
    1864:	7a cf       	rjmp	.-268    	; 0x175a <__fp_inf>
    1866:	7f cf       	rjmp	.-258    	; 0x1766 <__fp_nan>
    1868:	11 24       	eor	r1, r1
    186a:	e7 cf       	rjmp	.-50     	; 0x183a <__fp_szero>

0000186c <__mulsf3x>:
    186c:	c3 df       	rcall	.-122    	; 0x17f4 <__fp_split3>
    186e:	a0 f3       	brcs	.-24     	; 0x1858 <__mulsf3+0x4>

00001870 <__mulsf3_pse>:
    1870:	95 9f       	mul	r25, r21
    1872:	d1 f3       	breq	.-12     	; 0x1868 <__mulsf3+0x14>
    1874:	95 0f       	add	r25, r21
    1876:	50 e0       	ldi	r21, 0x00	; 0
    1878:	55 1f       	adc	r21, r21
    187a:	62 9f       	mul	r22, r18
    187c:	f0 01       	movw	r30, r0
    187e:	72 9f       	mul	r23, r18
    1880:	bb 27       	eor	r27, r27
    1882:	f0 0d       	add	r31, r0
    1884:	b1 1d       	adc	r27, r1
    1886:	63 9f       	mul	r22, r19
    1888:	aa 27       	eor	r26, r26
    188a:	f0 0d       	add	r31, r0
    188c:	b1 1d       	adc	r27, r1
    188e:	aa 1f       	adc	r26, r26
    1890:	64 9f       	mul	r22, r20
    1892:	66 27       	eor	r22, r22
    1894:	b0 0d       	add	r27, r0
    1896:	a1 1d       	adc	r26, r1
    1898:	66 1f       	adc	r22, r22
    189a:	82 9f       	mul	r24, r18
    189c:	22 27       	eor	r18, r18
    189e:	b0 0d       	add	r27, r0
    18a0:	a1 1d       	adc	r26, r1
    18a2:	62 1f       	adc	r22, r18
    18a4:	73 9f       	mul	r23, r19
    18a6:	b0 0d       	add	r27, r0
    18a8:	a1 1d       	adc	r26, r1
    18aa:	62 1f       	adc	r22, r18
    18ac:	83 9f       	mul	r24, r19
    18ae:	a0 0d       	add	r26, r0
    18b0:	61 1d       	adc	r22, r1
    18b2:	22 1f       	adc	r18, r18
    18b4:	74 9f       	mul	r23, r20
    18b6:	33 27       	eor	r19, r19
    18b8:	a0 0d       	add	r26, r0
    18ba:	61 1d       	adc	r22, r1
    18bc:	23 1f       	adc	r18, r19
    18be:	84 9f       	mul	r24, r20
    18c0:	60 0d       	add	r22, r0
    18c2:	21 1d       	adc	r18, r1
    18c4:	82 2f       	mov	r24, r18
    18c6:	76 2f       	mov	r23, r22
    18c8:	6a 2f       	mov	r22, r26
    18ca:	11 24       	eor	r1, r1
    18cc:	9f 57       	subi	r25, 0x7F	; 127
    18ce:	50 40       	sbci	r21, 0x00	; 0
    18d0:	8a f0       	brmi	.+34     	; 0x18f4 <__mulsf3_pse+0x84>
    18d2:	e1 f0       	breq	.+56     	; 0x190c <__mulsf3_pse+0x9c>
    18d4:	88 23       	and	r24, r24
    18d6:	4a f0       	brmi	.+18     	; 0x18ea <__mulsf3_pse+0x7a>
    18d8:	ee 0f       	add	r30, r30
    18da:	ff 1f       	adc	r31, r31
    18dc:	bb 1f       	adc	r27, r27
    18de:	66 1f       	adc	r22, r22
    18e0:	77 1f       	adc	r23, r23
    18e2:	88 1f       	adc	r24, r24
    18e4:	91 50       	subi	r25, 0x01	; 1
    18e6:	50 40       	sbci	r21, 0x00	; 0
    18e8:	a9 f7       	brne	.-22     	; 0x18d4 <__mulsf3_pse+0x64>
    18ea:	9e 3f       	cpi	r25, 0xFE	; 254
    18ec:	51 05       	cpc	r21, r1
    18ee:	70 f0       	brcs	.+28     	; 0x190c <__mulsf3_pse+0x9c>
    18f0:	34 cf       	rjmp	.-408    	; 0x175a <__fp_inf>
    18f2:	a3 cf       	rjmp	.-186    	; 0x183a <__fp_szero>
    18f4:	5f 3f       	cpi	r21, 0xFF	; 255
    18f6:	ec f3       	brlt	.-6      	; 0x18f2 <__mulsf3_pse+0x82>
    18f8:	98 3e       	cpi	r25, 0xE8	; 232
    18fa:	dc f3       	brlt	.-10     	; 0x18f2 <__mulsf3_pse+0x82>
    18fc:	86 95       	lsr	r24
    18fe:	77 95       	ror	r23
    1900:	67 95       	ror	r22
    1902:	b7 95       	ror	r27
    1904:	f7 95       	ror	r31
    1906:	e7 95       	ror	r30
    1908:	9f 5f       	subi	r25, 0xFF	; 255
    190a:	c1 f7       	brne	.-16     	; 0x18fc <__mulsf3_pse+0x8c>
    190c:	fe 2b       	or	r31, r30
    190e:	88 0f       	add	r24, r24
    1910:	91 1d       	adc	r25, r1
    1912:	96 95       	lsr	r25
    1914:	87 95       	ror	r24
    1916:	97 f9       	bld	r25, 7
    1918:	08 95       	ret

0000191a <square>:
    191a:	9b 01       	movw	r18, r22
    191c:	ac 01       	movw	r20, r24
    191e:	9a cf       	rjmp	.-204    	; 0x1854 <__mulsf3>

00001920 <eeprom_read_byte>:
    1920:	e1 99       	sbic	0x1c, 1	; 28
    1922:	fe cf       	rjmp	.-4      	; 0x1920 <eeprom_read_byte>
    1924:	9f bb       	out	0x1f, r25	; 31
    1926:	8e bb       	out	0x1e, r24	; 30
    1928:	e0 9a       	sbi	0x1c, 0	; 28
    192a:	99 27       	eor	r25, r25
    192c:	8d b3       	in	r24, 0x1d	; 29
    192e:	08 95       	ret

00001930 <eeprom_write_byte>:
    1930:	26 2f       	mov	r18, r22

00001932 <eeprom_write_r18>:
    1932:	e1 99       	sbic	0x1c, 1	; 28
    1934:	fe cf       	rjmp	.-4      	; 0x1932 <eeprom_write_r18>
    1936:	9f bb       	out	0x1f, r25	; 31
    1938:	8e bb       	out	0x1e, r24	; 30
    193a:	2d bb       	out	0x1d, r18	; 29
    193c:	0f b6       	in	r0, 0x3f	; 63
    193e:	f8 94       	cli
    1940:	e2 9a       	sbi	0x1c, 2	; 28
    1942:	e1 9a       	sbi	0x1c, 1	; 28
    1944:	0f be       	out	0x3f, r0	; 63
    1946:	01 96       	adiw	r24, 0x01	; 1
    1948:	08 95       	ret

0000194a <_exit>:
    194a:	f8 94       	cli

0000194c <__stop_program>:
    194c:	ff cf       	rjmp	.-2      	; 0x194c <__stop_program>
